
node_software.elf:     file format elf32-avr

Sections:
Idx Name          Size      VMA       LMA       File off  Algn
  0 .data         00000022  00800100  0000262a  000026be  2**0
                  CONTENTS, ALLOC, LOAD, DATA
  1 .text         0000262a  00000000  00000000  00000094  2**1
                  CONTENTS, ALLOC, LOAD, READONLY, CODE
  2 .bss          00000020  00800122  00800122  000026e0  2**0
                  ALLOC
  3 .comment      00000030  00000000  00000000  000026e0  2**0
                  CONTENTS, READONLY
  4 .note.gnu.avr.deviceinfo 00000040  00000000  00000000  00002710  2**2
                  CONTENTS, READONLY
  5 .debug_aranges 00000338  00000000  00000000  00002750  2**0
                  CONTENTS, READONLY, DEBUGGING
  6 .debug_info   00003c61  00000000  00000000  00002a88  2**0
                  CONTENTS, READONLY, DEBUGGING
  7 .debug_abbrev 00000a38  00000000  00000000  000066e9  2**0
                  CONTENTS, READONLY, DEBUGGING
  8 .debug_line   000022c4  00000000  00000000  00007121  2**0
                  CONTENTS, READONLY, DEBUGGING
  9 .debug_frame  00000cdc  00000000  00000000  000093e8  2**2
                  CONTENTS, READONLY, DEBUGGING
 10 .debug_str    00000fc5  00000000  00000000  0000a0c4  2**0
                  CONTENTS, READONLY, DEBUGGING
 11 .debug_loc    000065fb  00000000  00000000  0000b089  2**0
                  CONTENTS, READONLY, DEBUGGING
 12 .debug_ranges 00000370  00000000  00000000  00011684  2**0
                  CONTENTS, READONLY, DEBUGGING

Disassembly of section .text:

00000000 <__vectors>:
       0:	0c 94 9f 00 	jmp	0x13e	; 0x13e <__ctors_end>
       4:	0c 94 9f 0c 	jmp	0x193e	; 0x193e <__vector_1>
       8:	0c 94 bc 00 	jmp	0x178	; 0x178 <__bad_interrupt>
       c:	0c 94 bc 00 	jmp	0x178	; 0x178 <__bad_interrupt>
      10:	0c 94 bc 00 	jmp	0x178	; 0x178 <__bad_interrupt>
      14:	0c 94 bc 00 	jmp	0x178	; 0x178 <__bad_interrupt>
      18:	0c 94 bc 00 	jmp	0x178	; 0x178 <__bad_interrupt>
      1c:	0c 94 bc 00 	jmp	0x178	; 0x178 <__bad_interrupt>
      20:	0c 94 bc 00 	jmp	0x178	; 0x178 <__bad_interrupt>
      24:	0c 94 bc 00 	jmp	0x178	; 0x178 <__bad_interrupt>
      28:	0c 94 bc 00 	jmp	0x178	; 0x178 <__bad_interrupt>
      2c:	0c 94 bc 00 	jmp	0x178	; 0x178 <__bad_interrupt>
      30:	0c 94 bc 00 	jmp	0x178	; 0x178 <__bad_interrupt>
      34:	0c 94 bc 00 	jmp	0x178	; 0x178 <__bad_interrupt>
      38:	0c 94 bc 00 	jmp	0x178	; 0x178 <__bad_interrupt>
      3c:	0c 94 bc 00 	jmp	0x178	; 0x178 <__bad_interrupt>
      40:	0c 94 bc 00 	jmp	0x178	; 0x178 <__bad_interrupt>
      44:	0c 94 bc 00 	jmp	0x178	; 0x178 <__bad_interrupt>
      48:	0c 94 bc 00 	jmp	0x178	; 0x178 <__bad_interrupt>
      4c:	0c 94 bc 00 	jmp	0x178	; 0x178 <__bad_interrupt>
      50:	0c 94 bc 00 	jmp	0x178	; 0x178 <__bad_interrupt>
      54:	0c 94 bc 00 	jmp	0x178	; 0x178 <__bad_interrupt>
      58:	0c 94 bc 00 	jmp	0x178	; 0x178 <__bad_interrupt>
      5c:	0c 94 bc 00 	jmp	0x178	; 0x178 <__bad_interrupt>
      60:	0c 94 08 04 	jmp	0x810	; 0x810 <__vector_24>
      64:	0c 94 bc 00 	jmp	0x178	; 0x178 <__bad_interrupt>
      68:	20 04       	cpc	r2, r0
      6a:	6e 04       	cpc	r6, r14
      6c:	6e 04       	cpc	r6, r14
      6e:	6e 04       	cpc	r6, r14
      70:	6e 04       	cpc	r6, r14
      72:	6e 04       	cpc	r6, r14
      74:	6e 04       	cpc	r6, r14
      76:	6e 04       	cpc	r6, r14
      78:	22 04       	cpc	r2, r2
      7a:	6e 04       	cpc	r6, r14
      7c:	6e 04       	cpc	r6, r14
      7e:	6e 04       	cpc	r6, r14
      80:	6e 04       	cpc	r6, r14
      82:	6e 04       	cpc	r6, r14
      84:	6e 04       	cpc	r6, r14
      86:	6e 04       	cpc	r6, r14
      88:	22 04       	cpc	r2, r2
      8a:	6e 04       	cpc	r6, r14
      8c:	6e 04       	cpc	r6, r14
      8e:	6e 04       	cpc	r6, r14
      90:	6e 04       	cpc	r6, r14
      92:	6e 04       	cpc	r6, r14
      94:	6e 04       	cpc	r6, r14
      96:	6e 04       	cpc	r6, r14
      98:	6e 04       	cpc	r6, r14
      9a:	6e 04       	cpc	r6, r14
      9c:	6e 04       	cpc	r6, r14
      9e:	6e 04       	cpc	r6, r14
      a0:	6e 04       	cpc	r6, r14
      a2:	6e 04       	cpc	r6, r14
      a4:	6e 04       	cpc	r6, r14
      a6:	6e 04       	cpc	r6, r14
      a8:	22 04       	cpc	r2, r2
      aa:	6e 04       	cpc	r6, r14
      ac:	6e 04       	cpc	r6, r14
      ae:	6e 04       	cpc	r6, r14
      b0:	6e 04       	cpc	r6, r14
      b2:	6e 04       	cpc	r6, r14
      b4:	6e 04       	cpc	r6, r14
      b6:	6e 04       	cpc	r6, r14
      b8:	6e 04       	cpc	r6, r14
      ba:	6e 04       	cpc	r6, r14
      bc:	6e 04       	cpc	r6, r14
      be:	6e 04       	cpc	r6, r14
      c0:	6e 04       	cpc	r6, r14
      c2:	6e 04       	cpc	r6, r14
      c4:	6e 04       	cpc	r6, r14
      c6:	6e 04       	cpc	r6, r14
      c8:	6b 04       	cpc	r6, r11
      ca:	6e 04       	cpc	r6, r14
      cc:	6e 04       	cpc	r6, r14
      ce:	6e 04       	cpc	r6, r14
      d0:	6e 04       	cpc	r6, r14
      d2:	6e 04       	cpc	r6, r14
      d4:	6e 04       	cpc	r6, r14
      d6:	6e 04       	cpc	r6, r14
      d8:	4a 04       	cpc	r4, r10
      da:	6e 04       	cpc	r6, r14
      dc:	6e 04       	cpc	r6, r14
      de:	6e 04       	cpc	r6, r14
      e0:	6e 04       	cpc	r6, r14
      e2:	6e 04       	cpc	r6, r14
      e4:	6e 04       	cpc	r6, r14
      e6:	6e 04       	cpc	r6, r14
      e8:	6e 04       	cpc	r6, r14
      ea:	6e 04       	cpc	r6, r14
      ec:	6e 04       	cpc	r6, r14
      ee:	6e 04       	cpc	r6, r14
      f0:	6e 04       	cpc	r6, r14
      f2:	6e 04       	cpc	r6, r14
      f4:	6e 04       	cpc	r6, r14
      f6:	6e 04       	cpc	r6, r14
      f8:	3e 04       	cpc	r3, r14
      fa:	6e 04       	cpc	r6, r14
      fc:	6e 04       	cpc	r6, r14
      fe:	6e 04       	cpc	r6, r14
     100:	6e 04       	cpc	r6, r14
     102:	6e 04       	cpc	r6, r14
     104:	6e 04       	cpc	r6, r14
     106:	6e 04       	cpc	r6, r14
     108:	5c 04       	cpc	r5, r12
     10a:	c1 0b       	sbc	r28, r17
     10c:	af 0b       	sbc	r26, r31
     10e:	b1 0b       	sbc	r27, r17
     110:	b3 0b       	sbc	r27, r19
     112:	b5 0b       	sbc	r27, r21
     114:	b7 0b       	sbc	r27, r23
     116:	b9 0b       	sbc	r27, r25
     118:	bb 0b       	sbc	r27, r27
     11a:	bd 0b       	sbc	r27, r29
     11c:	bf 0b       	sbc	r27, r31
     11e:	2d 0f       	add	r18, r29
     120:	32 0f       	add	r19, r18
     122:	37 0f       	add	r19, r23
     124:	3e 0f       	add	r19, r30
     126:	45 0f       	add	r20, r21
     128:	4c 0f       	add	r20, r28
     12a:	50 0f       	add	r21, r16
     12c:	54 0f       	add	r21, r20
     12e:	58 0f       	add	r21, r24
     130:	5c 0f       	add	r21, r28
     132:	5f 0f       	add	r21, r31
     134:	63 0f       	add	r22, r19
     136:	67 0f       	add	r22, r23
     138:	6b 0f       	add	r22, r27
     13a:	6f 0f       	add	r22, r31
     13c:	73 0f       	add	r23, r19

0000013e <__ctors_end>:
     13e:	11 24       	eor	r1, r1
     140:	1f be       	out	0x3f, r1	; 63
     142:	cf ef       	ldi	r28, 0xFF	; 255
     144:	d8 e0       	ldi	r29, 0x08	; 8
     146:	de bf       	out	0x3e, r29	; 62
     148:	cd bf       	out	0x3d, r28	; 61

0000014a <__do_copy_data>:
     14a:	11 e0       	ldi	r17, 0x01	; 1
     14c:	a0 e0       	ldi	r26, 0x00	; 0
     14e:	b1 e0       	ldi	r27, 0x01	; 1
     150:	ea e2       	ldi	r30, 0x2A	; 42
     152:	f6 e2       	ldi	r31, 0x26	; 38
     154:	02 c0       	rjmp	.+4      	; 0x15a <__do_copy_data+0x10>
     156:	05 90       	lpm	r0, Z+
     158:	0d 92       	st	X+, r0
     15a:	a2 32       	cpi	r26, 0x22	; 34
     15c:	b1 07       	cpc	r27, r17
     15e:	d9 f7       	brne	.-10     	; 0x156 <__do_copy_data+0xc>

00000160 <__do_clear_bss>:
     160:	21 e0       	ldi	r18, 0x01	; 1
     162:	a2 e2       	ldi	r26, 0x22	; 34
     164:	b1 e0       	ldi	r27, 0x01	; 1
     166:	01 c0       	rjmp	.+2      	; 0x16a <.do_clear_bss_start>

00000168 <.do_clear_bss_loop>:
     168:	1d 92       	st	X+, r1

0000016a <.do_clear_bss_start>:
     16a:	a2 34       	cpi	r26, 0x42	; 66
     16c:	b2 07       	cpc	r27, r18
     16e:	e1 f7       	brne	.-8      	; 0x168 <.do_clear_bss_loop>
     170:	0e 94 3a 10 	call	0x2074	; 0x2074 <main>
     174:	0c 94 13 13 	jmp	0x2626	; 0x2626 <_exit>

00000178 <__bad_interrupt>:
     178:	0c 94 00 00 	jmp	0	; 0x0 <__vectors>

0000017c <power_get_battery_voltage>:
void serial_test(char test) {
	/* test function only for debug purpose */
	char data[4] = {test, '\r', '\n', '\0'};
	serial_send(data);
	_delay_ms(10);
}
     17c:	87 e0       	ldi	r24, 0x07	; 7
     17e:	80 93 7c 00 	sts	0x007C, r24	; 0x80007c <__DATA_REGION_ORIGIN__+0x1c>
     182:	ea e7       	ldi	r30, 0x7A	; 122
     184:	f0 e0       	ldi	r31, 0x00	; 0
     186:	86 e8       	ldi	r24, 0x86	; 134
     188:	80 83       	st	Z, r24
     18a:	10 92 7b 00 	sts	0x007B, r1	; 0x80007b <__DATA_REGION_ORIGIN__+0x1b>
     18e:	80 81       	ld	r24, Z
     190:	80 64       	ori	r24, 0x40	; 64
     192:	80 83       	st	Z, r24
     194:	80 81       	ld	r24, Z
     196:	84 ff       	sbrs	r24, 4
     198:	fd cf       	rjmp	.-6      	; 0x194 <power_get_battery_voltage+0x18>
     19a:	90 91 78 00 	lds	r25, 0x0078	; 0x800078 <__DATA_REGION_ORIGIN__+0x18>
     19e:	60 91 79 00 	lds	r22, 0x0079	; 0x800079 <__DATA_REGION_ORIGIN__+0x19>
     1a2:	ea e7       	ldi	r30, 0x7A	; 122
     1a4:	f0 e0       	ldi	r31, 0x00	; 0
     1a6:	80 81       	ld	r24, Z
     1a8:	8f 77       	andi	r24, 0x7F	; 127
     1aa:	80 83       	st	Z, r24
     1ac:	70 e0       	ldi	r23, 0x00	; 0
     1ae:	76 2f       	mov	r23, r22
     1b0:	66 27       	eor	r22, r22
     1b2:	69 0f       	add	r22, r25
     1b4:	71 1d       	adc	r23, r1
     1b6:	07 2e       	mov	r0, r23
     1b8:	00 0c       	add	r0, r0
     1ba:	88 0b       	sbc	r24, r24
     1bc:	99 0b       	sbc	r25, r25
     1be:	0e 94 67 11 	call	0x22ce	; 0x22ce <__floatsisf>
     1c2:	23 e3       	ldi	r18, 0x33	; 51
     1c4:	33 e3       	ldi	r19, 0x33	; 51
     1c6:	43 e5       	ldi	r20, 0x53	; 83
     1c8:	50 e4       	ldi	r21, 0x40	; 64
     1ca:	0e 94 1c 12 	call	0x2438	; 0x2438 <__mulsf3>
     1ce:	20 e0       	ldi	r18, 0x00	; 0
     1d0:	30 e0       	ldi	r19, 0x00	; 0
     1d2:	40 e8       	ldi	r20, 0x80	; 128
     1d4:	5a e3       	ldi	r21, 0x3A	; 58
     1d6:	0e 94 1c 12 	call	0x2438	; 0x2438 <__mulsf3>
     1da:	20 e0       	ldi	r18, 0x00	; 0
     1dc:	30 e0       	ldi	r19, 0x00	; 0
     1de:	40 ec       	ldi	r20, 0xC0	; 192
     1e0:	5f e3       	ldi	r21, 0x3F	; 63
     1e2:	0e 94 1c 12 	call	0x2438	; 0x2438 <__mulsf3>
     1e6:	08 95       	ret

000001e8 <power_get_solar_intensity>:
     1e8:	86 e0       	ldi	r24, 0x06	; 6
     1ea:	80 93 7c 00 	sts	0x007C, r24	; 0x80007c <__DATA_REGION_ORIGIN__+0x1c>
     1ee:	ea e7       	ldi	r30, 0x7A	; 122
     1f0:	f0 e0       	ldi	r31, 0x00	; 0
     1f2:	86 e8       	ldi	r24, 0x86	; 134
     1f4:	80 83       	st	Z, r24
     1f6:	10 92 7b 00 	sts	0x007B, r1	; 0x80007b <__DATA_REGION_ORIGIN__+0x1b>
     1fa:	80 81       	ld	r24, Z
     1fc:	80 64       	ori	r24, 0x40	; 64
     1fe:	80 83       	st	Z, r24
     200:	80 81       	ld	r24, Z
     202:	84 ff       	sbrs	r24, 4
     204:	fd cf       	rjmp	.-6      	; 0x200 <power_get_solar_intensity+0x18>
     206:	90 91 78 00 	lds	r25, 0x0078	; 0x800078 <__DATA_REGION_ORIGIN__+0x18>
     20a:	60 91 79 00 	lds	r22, 0x0079	; 0x800079 <__DATA_REGION_ORIGIN__+0x19>
     20e:	ea e7       	ldi	r30, 0x7A	; 122
     210:	f0 e0       	ldi	r31, 0x00	; 0
     212:	80 81       	ld	r24, Z
     214:	8f 77       	andi	r24, 0x7F	; 127
     216:	80 83       	st	Z, r24
     218:	70 e0       	ldi	r23, 0x00	; 0
     21a:	76 2f       	mov	r23, r22
     21c:	66 27       	eor	r22, r22
     21e:	69 0f       	add	r22, r25
     220:	71 1d       	adc	r23, r1
     222:	07 2e       	mov	r0, r23
     224:	00 0c       	add	r0, r0
     226:	88 0b       	sbc	r24, r24
     228:	99 0b       	sbc	r25, r25
     22a:	0e 94 67 11 	call	0x22ce	; 0x22ce <__floatsisf>
     22e:	23 e3       	ldi	r18, 0x33	; 51
     230:	33 e3       	ldi	r19, 0x33	; 51
     232:	43 e5       	ldi	r20, 0x53	; 83
     234:	50 e4       	ldi	r21, 0x40	; 64
     236:	0e 94 1c 12 	call	0x2438	; 0x2438 <__mulsf3>
     23a:	20 e0       	ldi	r18, 0x00	; 0
     23c:	30 e0       	ldi	r19, 0x00	; 0
     23e:	40 e8       	ldi	r20, 0x80	; 128
     240:	5a e3       	ldi	r21, 0x3A	; 58
     242:	0e 94 1c 12 	call	0x2438	; 0x2438 <__mulsf3>
     246:	08 95       	ret

00000248 <power_on_external_peripherals>:
     248:	38 9a       	sbi	0x07, 0	; 7
     24a:	40 9a       	sbi	0x08, 0	; 8
     24c:	2f ef       	ldi	r18, 0xFF	; 255
     24e:	80 e7       	ldi	r24, 0x70	; 112
     250:	92 e0       	ldi	r25, 0x02	; 2
     252:	21 50       	subi	r18, 0x01	; 1
     254:	80 40       	sbci	r24, 0x00	; 0
     256:	90 40       	sbci	r25, 0x00	; 0
     258:	e1 f7       	brne	.-8      	; 0x252 <power_on_external_peripherals+0xa>
     25a:	00 c0       	rjmp	.+0      	; 0x25c <power_on_external_peripherals+0x14>
     25c:	00 00       	nop
     25e:	08 95       	ret

00000260 <power_off_external_peripherals>:
     260:	38 98       	cbi	0x07, 0	; 7
     262:	40 98       	cbi	0x08, 0	; 8
     264:	5e 98       	cbi	0x0b, 6	; 11
     266:	08 95       	ret

00000268 <power_on_state_led>:
     268:	56 9a       	sbi	0x0a, 6	; 10
     26a:	5e 98       	cbi	0x0b, 6	; 11
     26c:	08 95       	ret

0000026e <power_off_state_led>:
     26e:	56 9a       	sbi	0x0a, 6	; 10
     270:	5e 9a       	sbi	0x0b, 6	; 11
     272:	08 95       	ret

00000274 <power_blink_state_led>:
     274:	4f 92       	push	r4
     276:	5f 92       	push	r5
     278:	6f 92       	push	r6
     27a:	7f 92       	push	r7
     27c:	8f 92       	push	r8
     27e:	9f 92       	push	r9
     280:	af 92       	push	r10
     282:	bf 92       	push	r11
     284:	cf 92       	push	r12
     286:	df 92       	push	r13
     288:	ef 92       	push	r14
     28a:	ff 92       	push	r15
     28c:	0f 93       	push	r16
     28e:	1f 93       	push	r17
     290:	69 01       	movw	r12, r18
     292:	7a 01       	movw	r14, r20
     294:	56 9a       	sbi	0x0a, 6	; 10
     296:	23 2b       	or	r18, r19
     298:	24 2b       	or	r18, r20
     29a:	25 2b       	or	r18, r21
     29c:	09 f4       	brne	.+2      	; 0x2a0 <power_blink_state_led+0x2c>
     29e:	43 c0       	rjmp	.+134    	; 0x326 <power_blink_state_led+0xb2>
     2a0:	40 e0       	ldi	r20, 0x00	; 0
     2a2:	00 e0       	ldi	r16, 0x00	; 0
     2a4:	10 e0       	ldi	r17, 0x00	; 0
     2a6:	98 01       	movw	r18, r16
     2a8:	2c 01       	movw	r4, r24
     2aa:	61 2c       	mov	r6, r1
     2ac:	71 2c       	mov	r7, r1
     2ae:	f1 e0       	ldi	r31, 0x01	; 1
     2b0:	4b 01       	movw	r8, r22
     2b2:	a1 2c       	mov	r10, r1
     2b4:	b1 2c       	mov	r11, r1
     2b6:	e0 e0       	ldi	r30, 0x00	; 0
     2b8:	44 23       	and	r20, r20
     2ba:	b9 f0       	breq	.+46     	; 0x2ea <power_blink_state_led+0x76>
     2bc:	08 0d       	add	r16, r8
     2be:	19 1d       	adc	r17, r9
     2c0:	2a 1d       	adc	r18, r10
     2c2:	3b 1d       	adc	r19, r11
     2c4:	5e 9a       	sbi	0x0b, 6	; 11
     2c6:	61 15       	cp	r22, r1
     2c8:	71 05       	cpc	r23, r1
     2ca:	29 f1       	breq	.+74     	; 0x316 <power_blink_state_led+0xa2>
     2cc:	40 e0       	ldi	r20, 0x00	; 0
     2ce:	50 e0       	ldi	r21, 0x00	; 0
     2d0:	af ec       	ldi	r26, 0xCF	; 207
     2d2:	b7 e0       	ldi	r27, 0x07	; 7
     2d4:	11 97       	sbiw	r26, 0x01	; 1
     2d6:	f1 f7       	brne	.-4      	; 0x2d4 <power_blink_state_led+0x60>
     2d8:	00 c0       	rjmp	.+0      	; 0x2da <power_blink_state_led+0x66>
     2da:	00 00       	nop
     2dc:	4f 5f       	subi	r20, 0xFF	; 255
     2de:	5f 4f       	sbci	r21, 0xFF	; 255
     2e0:	64 17       	cp	r22, r20
     2e2:	75 07       	cpc	r23, r21
     2e4:	a9 f7       	brne	.-22     	; 0x2d0 <power_blink_state_led+0x5c>
     2e6:	4e 2f       	mov	r20, r30
     2e8:	19 c0       	rjmp	.+50     	; 0x31c <power_blink_state_led+0xa8>
     2ea:	04 0d       	add	r16, r4
     2ec:	15 1d       	adc	r17, r5
     2ee:	26 1d       	adc	r18, r6
     2f0:	37 1d       	adc	r19, r7
     2f2:	5e 98       	cbi	0x0b, 6	; 11
     2f4:	00 97       	sbiw	r24, 0x00	; 0
     2f6:	89 f0       	breq	.+34     	; 0x31a <power_blink_state_led+0xa6>
     2f8:	40 e0       	ldi	r20, 0x00	; 0
     2fa:	50 e0       	ldi	r21, 0x00	; 0
     2fc:	af ec       	ldi	r26, 0xCF	; 207
     2fe:	b7 e0       	ldi	r27, 0x07	; 7
     300:	11 97       	sbiw	r26, 0x01	; 1
     302:	f1 f7       	brne	.-4      	; 0x300 <power_blink_state_led+0x8c>
     304:	00 c0       	rjmp	.+0      	; 0x306 <power_blink_state_led+0x92>
     306:	00 00       	nop
     308:	4f 5f       	subi	r20, 0xFF	; 255
     30a:	5f 4f       	sbci	r21, 0xFF	; 255
     30c:	84 17       	cp	r24, r20
     30e:	95 07       	cpc	r25, r21
     310:	a9 f7       	brne	.-22     	; 0x2fc <power_blink_state_led+0x88>
     312:	4f 2f       	mov	r20, r31
     314:	03 c0       	rjmp	.+6      	; 0x31c <power_blink_state_led+0xa8>
     316:	4e 2f       	mov	r20, r30
     318:	01 c0       	rjmp	.+2      	; 0x31c <power_blink_state_led+0xa8>
     31a:	4f 2f       	mov	r20, r31
     31c:	0c 15       	cp	r16, r12
     31e:	1d 05       	cpc	r17, r13
     320:	2e 05       	cpc	r18, r14
     322:	3f 05       	cpc	r19, r15
     324:	48 f2       	brcs	.-110    	; 0x2b8 <power_blink_state_led+0x44>
     326:	5e 9a       	sbi	0x0b, 6	; 11
     328:	1f 91       	pop	r17
     32a:	0f 91       	pop	r16
     32c:	ff 90       	pop	r15
     32e:	ef 90       	pop	r14
     330:	df 90       	pop	r13
     332:	cf 90       	pop	r12
     334:	bf 90       	pop	r11
     336:	af 90       	pop	r10
     338:	9f 90       	pop	r9
     33a:	8f 90       	pop	r8
     33c:	7f 90       	pop	r7
     33e:	6f 90       	pop	r6
     340:	5f 90       	pop	r5
     342:	4f 90       	pop	r4
     344:	08 95       	ret

00000346 <power_setup_clock>:
     346:	e1 e6       	ldi	r30, 0x61	; 97
     348:	f0 e0       	ldi	r31, 0x00	; 0
     34a:	80 81       	ld	r24, Z
     34c:	80 68       	ori	r24, 0x80	; 128
     34e:	80 83       	st	Z, r24
     350:	80 e8       	ldi	r24, 0x80	; 128
     352:	80 83       	st	Z, r24
     354:	82 e0       	ldi	r24, 0x02	; 2
     356:	8a 95       	dec	r24
     358:	f1 f7       	brne	.-4      	; 0x356 <power_setup_clock+0x10>
     35a:	00 c0       	rjmp	.+0      	; 0x35c <power_setup_clock+0x16>
     35c:	81 e0       	ldi	r24, 0x01	; 1
     35e:	08 95       	ret

00000360 <power_battery_startup_check>:
     360:	cf 93       	push	r28
     362:	0e 94 be 00 	call	0x17c	; 0x17c <power_get_battery_voltage>
     366:	c1 e0       	ldi	r28, 0x01	; 1
     368:	20 e0       	ldi	r18, 0x00	; 0
     36a:	30 e0       	ldi	r19, 0x00	; 0
     36c:	40 e6       	ldi	r20, 0x60	; 96
     36e:	50 e4       	ldi	r21, 0x40	; 64
     370:	0e 94 17 12 	call	0x242e	; 0x242e <__gesf2>
     374:	88 23       	and	r24, r24
     376:	0c f4       	brge	.+2      	; 0x37a <power_battery_startup_check+0x1a>
     378:	c0 e0       	ldi	r28, 0x00	; 0
     37a:	8c 2f       	mov	r24, r28
     37c:	cf 91       	pop	r28
     37e:	08 95       	ret

00000380 <hx711_init>:
     380:	3a 9a       	sbi	0x07, 2	; 7
     382:	42 98       	cbi	0x08, 2	; 8
     384:	37 b1       	in	r19, 0x07	; 7
     386:	26 b1       	in	r18, 0x06	; 6
     388:	81 e0       	ldi	r24, 0x01	; 1
     38a:	90 e0       	ldi	r25, 0x00	; 0
     38c:	ac 01       	movw	r20, r24
     38e:	02 c0       	rjmp	.+4      	; 0x394 <hx711_init+0x14>
     390:	44 0f       	add	r20, r20
     392:	55 1f       	adc	r21, r21
     394:	2a 95       	dec	r18
     396:	e2 f7       	brpl	.-8      	; 0x390 <hx711_init+0x10>
     398:	24 2f       	mov	r18, r20
     39a:	20 95       	com	r18
     39c:	23 23       	and	r18, r19
     39e:	27 b9       	out	0x07, r18	; 7
     3a0:	28 b1       	in	r18, 0x08	; 8
     3a2:	36 b1       	in	r19, 0x06	; 6
     3a4:	02 c0       	rjmp	.+4      	; 0x3aa <hx711_init+0x2a>
     3a6:	88 0f       	add	r24, r24
     3a8:	99 1f       	adc	r25, r25
     3aa:	3a 95       	dec	r19
     3ac:	e2 f7       	brpl	.-8      	; 0x3a6 <hx711_init+0x26>
     3ae:	80 95       	com	r24
     3b0:	82 23       	and	r24, r18
     3b2:	88 b9       	out	0x08, r24	; 8
     3b4:	8f ec       	ldi	r24, 0xCF	; 207
     3b6:	97 e0       	ldi	r25, 0x07	; 7
     3b8:	01 97       	sbiw	r24, 0x01	; 1
     3ba:	f1 f7       	brne	.-4      	; 0x3b8 <hx711_init+0x38>
     3bc:	00 c0       	rjmp	.+0      	; 0x3be <hx711_init+0x3e>
     3be:	00 00       	nop
     3c0:	08 95       	ret

000003c2 <hx711_end>:
     3c2:	3a 98       	cbi	0x07, 2	; 7
     3c4:	42 98       	cbi	0x08, 2	; 8
     3c6:	37 b1       	in	r19, 0x07	; 7
     3c8:	26 b1       	in	r18, 0x06	; 6
     3ca:	81 e0       	ldi	r24, 0x01	; 1
     3cc:	90 e0       	ldi	r25, 0x00	; 0
     3ce:	ac 01       	movw	r20, r24
     3d0:	02 c0       	rjmp	.+4      	; 0x3d6 <hx711_end+0x14>
     3d2:	44 0f       	add	r20, r20
     3d4:	55 1f       	adc	r21, r21
     3d6:	2a 95       	dec	r18
     3d8:	e2 f7       	brpl	.-8      	; 0x3d2 <hx711_end+0x10>
     3da:	24 2f       	mov	r18, r20
     3dc:	20 95       	com	r18
     3de:	23 23       	and	r18, r19
     3e0:	27 b9       	out	0x07, r18	; 7
     3e2:	28 b1       	in	r18, 0x08	; 8
     3e4:	36 b1       	in	r19, 0x06	; 6
     3e6:	02 c0       	rjmp	.+4      	; 0x3ec <hx711_end+0x2a>
     3e8:	88 0f       	add	r24, r24
     3ea:	99 1f       	adc	r25, r25
     3ec:	3a 95       	dec	r19
     3ee:	e2 f7       	brpl	.-8      	; 0x3e8 <hx711_end+0x26>
     3f0:	80 95       	com	r24
     3f2:	82 23       	and	r24, r18
     3f4:	88 b9       	out	0x08, r24	; 8
     3f6:	08 95       	ret

000003f8 <hx711_wait_until_ready>:
     3f8:	00 97       	sbiw	r24, 0x00	; 0
     3fa:	89 f0       	breq	.+34     	; 0x41e <__LOCK_REGION_LENGTH__+0x1e>
     3fc:	20 e0       	ldi	r18, 0x00	; 0
     3fe:	30 e0       	ldi	r19, 0x00	; 0
     400:	33 9b       	sbis	0x06, 3	; 6
     402:	0f c0       	rjmp	.+30     	; 0x422 <__LOCK_REGION_LENGTH__+0x22>
     404:	2f 5f       	subi	r18, 0xFF	; 255
     406:	3f 4f       	sbci	r19, 0xFF	; 255
     408:	ef ec       	ldi	r30, 0xCF	; 207
     40a:	f7 e0       	ldi	r31, 0x07	; 7
     40c:	31 97       	sbiw	r30, 0x01	; 1
     40e:	f1 f7       	brne	.-4      	; 0x40c <__LOCK_REGION_LENGTH__+0xc>
     410:	00 c0       	rjmp	.+0      	; 0x412 <__LOCK_REGION_LENGTH__+0x12>
     412:	00 00       	nop
     414:	82 17       	cp	r24, r18
     416:	93 07       	cpc	r25, r19
     418:	99 f7       	brne	.-26     	; 0x400 <__LOCK_REGION_LENGTH__>
     41a:	80 e0       	ldi	r24, 0x00	; 0
     41c:	08 95       	ret
     41e:	80 e0       	ldi	r24, 0x00	; 0
     420:	08 95       	ret
     422:	8f ec       	ldi	r24, 0xCF	; 207
     424:	97 e0       	ldi	r25, 0x07	; 7
     426:	01 97       	sbiw	r24, 0x01	; 1
     428:	f1 f7       	brne	.-4      	; 0x426 <__LOCK_REGION_LENGTH__+0x26>
     42a:	00 c0       	rjmp	.+0      	; 0x42c <__LOCK_REGION_LENGTH__+0x2c>
     42c:	00 00       	nop
     42e:	81 e0       	ldi	r24, 0x01	; 1
     430:	08 95       	ret

00000432 <hx711_change_mode>:
     432:	cf 93       	push	r28
     434:	c8 2f       	mov	r28, r24
     436:	88 ee       	ldi	r24, 0xE8	; 232
     438:	93 e0       	ldi	r25, 0x03	; 3
     43a:	0e 94 fc 01 	call	0x3f8	; 0x3f8 <hx711_wait_until_ready>
     43e:	88 23       	and	r24, r24
     440:	c9 f0       	breq	.+50     	; 0x474 <hx711_change_mode+0x42>
     442:	89 e1       	ldi	r24, 0x19	; 25
     444:	8c 0f       	add	r24, r28
     446:	2a e1       	ldi	r18, 0x1A	; 26
     448:	2a 95       	dec	r18
     44a:	f1 f7       	brne	.-4      	; 0x448 <hx711_change_mode+0x16>
     44c:	00 c0       	rjmp	.+0      	; 0x44e <hx711_change_mode+0x1c>
     44e:	88 23       	and	r24, r24
     450:	81 f0       	breq	.+32     	; 0x472 <hx711_change_mode+0x40>
     452:	90 e0       	ldi	r25, 0x00	; 0
     454:	42 9a       	sbi	0x08, 2	; 8
     456:	2a e1       	ldi	r18, 0x1A	; 26
     458:	2a 95       	dec	r18
     45a:	f1 f7       	brne	.-4      	; 0x458 <hx711_change_mode+0x26>
     45c:	00 c0       	rjmp	.+0      	; 0x45e <hx711_change_mode+0x2c>
     45e:	42 98       	cbi	0x08, 2	; 8
     460:	2a e1       	ldi	r18, 0x1A	; 26
     462:	2a 95       	dec	r18
     464:	f1 f7       	brne	.-4      	; 0x462 <hx711_change_mode+0x30>
     466:	00 c0       	rjmp	.+0      	; 0x468 <hx711_change_mode+0x36>
     468:	9f 5f       	subi	r25, 0xFF	; 255
     46a:	89 13       	cpse	r24, r25
     46c:	f3 cf       	rjmp	.-26     	; 0x454 <hx711_change_mode+0x22>
     46e:	81 e0       	ldi	r24, 0x01	; 1
     470:	01 c0       	rjmp	.+2      	; 0x474 <hx711_change_mode+0x42>
     472:	81 e0       	ldi	r24, 0x01	; 1
     474:	cf 91       	pop	r28
     476:	08 95       	ret

00000478 <hx711_read_stored_conversion>:
     478:	1f 93       	push	r17
     47a:	cf 93       	push	r28
     47c:	df 93       	push	r29
     47e:	18 2f       	mov	r17, r24
     480:	eb 01       	movw	r28, r22
     482:	88 ee       	ldi	r24, 0xE8	; 232
     484:	93 e0       	ldi	r25, 0x03	; 3
     486:	0e 94 fc 01 	call	0x3f8	; 0x3f8 <hx711_wait_until_ready>
     48a:	88 23       	and	r24, r24
     48c:	69 f1       	breq	.+90     	; 0x4e8 <hx711_read_stored_conversion+0x70>
     48e:	48 e1       	ldi	r20, 0x18	; 24
     490:	50 e0       	ldi	r21, 0x00	; 0
     492:	80 e0       	ldi	r24, 0x00	; 0
     494:	90 e0       	ldi	r25, 0x00	; 0
     496:	dc 01       	movw	r26, r24
     498:	42 9a       	sbi	0x08, 2	; 8
     49a:	2a e1       	ldi	r18, 0x1A	; 26
     49c:	2a 95       	dec	r18
     49e:	f1 f7       	brne	.-4      	; 0x49c <hx711_read_stored_conversion+0x24>
     4a0:	00 c0       	rjmp	.+0      	; 0x4a2 <hx711_read_stored_conversion+0x2a>
     4a2:	88 0f       	add	r24, r24
     4a4:	99 1f       	adc	r25, r25
     4a6:	aa 1f       	adc	r26, r26
     4a8:	bb 1f       	adc	r27, r27
     4aa:	26 b1       	in	r18, 0x06	; 6
     4ac:	23 fb       	bst	r18, 3
     4ae:	22 27       	eor	r18, r18
     4b0:	20 f9       	bld	r18, 0
     4b2:	82 2b       	or	r24, r18
     4b4:	42 98       	cbi	0x08, 2	; 8
     4b6:	3a e1       	ldi	r19, 0x1A	; 26
     4b8:	3a 95       	dec	r19
     4ba:	f1 f7       	brne	.-4      	; 0x4b8 <hx711_read_stored_conversion+0x40>
     4bc:	00 c0       	rjmp	.+0      	; 0x4be <hx711_read_stored_conversion+0x46>
     4be:	41 50       	subi	r20, 0x01	; 1
     4c0:	51 09       	sbc	r21, r1
     4c2:	51 f7       	brne	.-44     	; 0x498 <hx711_read_stored_conversion+0x20>
     4c4:	20 e0       	ldi	r18, 0x00	; 0
     4c6:	42 9a       	sbi	0x08, 2	; 8
     4c8:	3a e1       	ldi	r19, 0x1A	; 26
     4ca:	3a 95       	dec	r19
     4cc:	f1 f7       	brne	.-4      	; 0x4ca <hx711_read_stored_conversion+0x52>
     4ce:	00 c0       	rjmp	.+0      	; 0x4d0 <hx711_read_stored_conversion+0x58>
     4d0:	42 98       	cbi	0x08, 2	; 8
     4d2:	3a e1       	ldi	r19, 0x1A	; 26
     4d4:	3a 95       	dec	r19
     4d6:	f1 f7       	brne	.-4      	; 0x4d4 <hx711_read_stored_conversion+0x5c>
     4d8:	00 c0       	rjmp	.+0      	; 0x4da <hx711_read_stored_conversion+0x62>
     4da:	2f 5f       	subi	r18, 0xFF	; 255
     4dc:	12 17       	cp	r17, r18
     4de:	98 f7       	brcc	.-26     	; 0x4c6 <hx711_read_stored_conversion+0x4e>
     4e0:	a8 83       	st	Y, r26
     4e2:	99 83       	std	Y+1, r25	; 0x01
     4e4:	8a 83       	std	Y+2, r24	; 0x02
     4e6:	81 e0       	ldi	r24, 0x01	; 1
     4e8:	df 91       	pop	r29
     4ea:	cf 91       	pop	r28
     4ec:	1f 91       	pop	r17
     4ee:	08 95       	ret

000004f0 <hx711_multiple_conversion_average>:
     4f0:	8f 92       	push	r8
     4f2:	9f 92       	push	r9
     4f4:	af 92       	push	r10
     4f6:	bf 92       	push	r11
     4f8:	df 92       	push	r13
     4fa:	ef 92       	push	r14
     4fc:	ff 92       	push	r15
     4fe:	0f 93       	push	r16
     500:	1f 93       	push	r17
     502:	cf 93       	push	r28
     504:	df 93       	push	r29
     506:	00 d0       	rcall	.+0      	; 0x508 <hx711_multiple_conversion_average+0x18>
     508:	1f 92       	push	r1
     50a:	cd b7       	in	r28, 0x3d	; 61
     50c:	de b7       	in	r29, 0x3e	; 62
     50e:	d8 2e       	mov	r13, r24
     510:	06 2f       	mov	r16, r22
     512:	7a 01       	movw	r14, r20
     514:	0e 94 19 02 	call	0x432	; 0x432 <hx711_change_mode>
     518:	00 23       	and	r16, r16
     51a:	99 f1       	breq	.+102    	; 0x582 <hx711_multiple_conversion_average+0x92>
     51c:	10 e0       	ldi	r17, 0x00	; 0
     51e:	81 2c       	mov	r8, r1
     520:	91 2c       	mov	r9, r1
     522:	54 01       	movw	r10, r8
     524:	be 01       	movw	r22, r28
     526:	6f 5f       	subi	r22, 0xFF	; 255
     528:	7f 4f       	sbci	r23, 0xFF	; 255
     52a:	8d 2d       	mov	r24, r13
     52c:	0e 94 3c 02 	call	0x478	; 0x478 <hx711_read_stored_conversion>
     530:	88 23       	and	r24, r24
     532:	b9 f1       	breq	.+110    	; 0x5a2 <hx711_multiple_conversion_average+0xb2>
     534:	88 ee       	ldi	r24, 0xE8	; 232
     536:	93 e0       	ldi	r25, 0x03	; 3
     538:	0e 94 fc 01 	call	0x3f8	; 0x3f8 <hx711_wait_until_ready>
     53c:	88 23       	and	r24, r24
     53e:	89 f1       	breq	.+98     	; 0x5a2 <hx711_multiple_conversion_average+0xb2>
     540:	49 81       	ldd	r20, Y+1	; 0x01
     542:	2a 81       	ldd	r18, Y+2	; 0x02
     544:	84 2f       	mov	r24, r20
     546:	90 e0       	ldi	r25, 0x00	; 0
     548:	a0 e0       	ldi	r26, 0x00	; 0
     54a:	b0 e0       	ldi	r27, 0x00	; 0
     54c:	dc 01       	movw	r26, r24
     54e:	99 27       	eor	r25, r25
     550:	88 27       	eor	r24, r24
     552:	92 2b       	or	r25, r18
     554:	2b 81       	ldd	r18, Y+3	; 0x03
     556:	82 2b       	or	r24, r18
     558:	44 0f       	add	r20, r20
     55a:	44 0b       	sbc	r20, r20
     55c:	50 e0       	ldi	r21, 0x00	; 0
     55e:	60 e0       	ldi	r22, 0x00	; 0
     560:	70 e0       	ldi	r23, 0x00	; 0
     562:	74 2f       	mov	r23, r20
     564:	66 27       	eor	r22, r22
     566:	55 27       	eor	r21, r21
     568:	44 27       	eor	r20, r20
     56a:	84 2b       	or	r24, r20
     56c:	95 2b       	or	r25, r21
     56e:	a6 2b       	or	r26, r22
     570:	b7 2b       	or	r27, r23
     572:	88 0e       	add	r8, r24
     574:	99 1e       	adc	r9, r25
     576:	aa 1e       	adc	r10, r26
     578:	bb 1e       	adc	r11, r27
     57a:	1f 5f       	subi	r17, 0xFF	; 255
     57c:	01 13       	cpse	r16, r17
     57e:	d2 cf       	rjmp	.-92     	; 0x524 <hx711_multiple_conversion_average+0x34>
     580:	03 c0       	rjmp	.+6      	; 0x588 <hx711_multiple_conversion_average+0x98>
     582:	81 2c       	mov	r8, r1
     584:	91 2c       	mov	r9, r1
     586:	54 01       	movw	r10, r8
     588:	20 2f       	mov	r18, r16
     58a:	30 e0       	ldi	r19, 0x00	; 0
     58c:	40 e0       	ldi	r20, 0x00	; 0
     58e:	50 e0       	ldi	r21, 0x00	; 0
     590:	c5 01       	movw	r24, r10
     592:	b4 01       	movw	r22, r8
     594:	0e 94 df 12 	call	0x25be	; 0x25be <__divmodsi4>
     598:	f7 01       	movw	r30, r14
     59a:	40 83       	st	Z, r20
     59c:	31 83       	std	Z+1, r19	; 0x01
     59e:	22 83       	std	Z+2, r18	; 0x02
     5a0:	81 e0       	ldi	r24, 0x01	; 1
     5a2:	0f 90       	pop	r0
     5a4:	0f 90       	pop	r0
     5a6:	0f 90       	pop	r0
     5a8:	df 91       	pop	r29
     5aa:	cf 91       	pop	r28
     5ac:	1f 91       	pop	r17
     5ae:	0f 91       	pop	r16
     5b0:	ff 90       	pop	r15
     5b2:	ef 90       	pop	r14
     5b4:	df 90       	pop	r13
     5b6:	bf 90       	pop	r11
     5b8:	af 90       	pop	r10
     5ba:	9f 90       	pop	r9
     5bc:	8f 90       	pop	r8
     5be:	08 95       	ret

000005c0 <onewire_pin_low>:
     5c0:	39 9a       	sbi	0x07, 1	; 7
     5c2:	08 95       	ret

000005c4 <onewire_pin_release>:
     5c4:	39 98       	cbi	0x07, 1	; 7
     5c6:	08 95       	ret

000005c8 <onewire_pin_read>:
     5c8:	86 b1       	in	r24, 0x06	; 6
     5ca:	86 95       	lsr	r24
     5cc:	81 70       	andi	r24, 0x01	; 1
     5ce:	08 95       	ret

000005d0 <onewire_init>:
     5d0:	41 98       	cbi	0x08, 1	; 8
     5d2:	08 95       	ret

000005d4 <onewire_reset>:
     5d4:	0e 94 e0 02 	call	0x5c0	; 0x5c0 <onewire_pin_low>
     5d8:	8f eb       	ldi	r24, 0xBF	; 191
     5da:	93 e0       	ldi	r25, 0x03	; 3
     5dc:	01 97       	sbiw	r24, 0x01	; 1
     5de:	f1 f7       	brne	.-4      	; 0x5dc <onewire_reset+0x8>
     5e0:	00 c0       	rjmp	.+0      	; 0x5e2 <onewire_reset+0xe>
     5e2:	00 00       	nop
     5e4:	0e 94 e2 02 	call	0x5c4	; 0x5c4 <onewire_pin_release>
     5e8:	9a eb       	ldi	r25, 0xBA	; 186
     5ea:	9a 95       	dec	r25
     5ec:	f1 f7       	brne	.-4      	; 0x5ea <onewire_reset+0x16>
     5ee:	00 c0       	rjmp	.+0      	; 0x5f0 <onewire_reset+0x1c>
     5f0:	0e 94 e4 02 	call	0x5c8	; 0x5c8 <onewire_pin_read>
     5f4:	81 11       	cpse	r24, r1
     5f6:	08 c0       	rjmp	.+16     	; 0x608 <onewire_reset+0x34>
     5f8:	83 e3       	ldi	r24, 0x33	; 51
     5fa:	93 e0       	ldi	r25, 0x03	; 3
     5fc:	01 97       	sbiw	r24, 0x01	; 1
     5fe:	f1 f7       	brne	.-4      	; 0x5fc <onewire_reset+0x28>
     600:	00 c0       	rjmp	.+0      	; 0x602 <onewire_reset+0x2e>
     602:	00 00       	nop
     604:	81 e0       	ldi	r24, 0x01	; 1
     606:	08 95       	ret
     608:	80 e0       	ldi	r24, 0x00	; 0
     60a:	08 95       	ret

0000060c <onewire_write>:
     60c:	1f 93       	push	r17
     60e:	cf 93       	push	r28
     610:	df 93       	push	r29
     612:	18 2f       	mov	r17, r24
     614:	c8 e0       	ldi	r28, 0x08	; 8
     616:	d0 e0       	ldi	r29, 0x00	; 0
     618:	10 ff       	sbrs	r17, 0
     61a:	0c c0       	rjmp	.+24     	; 0x634 <onewire_write+0x28>
     61c:	0e 94 e0 02 	call	0x5c0	; 0x5c0 <onewire_pin_low>
     620:	80 e1       	ldi	r24, 0x10	; 16
     622:	8a 95       	dec	r24
     624:	f1 f7       	brne	.-4      	; 0x622 <onewire_write+0x16>
     626:	0e 94 e2 02 	call	0x5c4	; 0x5c4 <onewire_pin_release>
     62a:	8a ea       	ldi	r24, 0xAA	; 170
     62c:	8a 95       	dec	r24
     62e:	f1 f7       	brne	.-4      	; 0x62c <onewire_write+0x20>
     630:	00 c0       	rjmp	.+0      	; 0x632 <onewire_write+0x26>
     632:	0b c0       	rjmp	.+22     	; 0x64a <onewire_write+0x3e>
     634:	0e 94 e0 02 	call	0x5c0	; 0x5c0 <onewire_pin_low>
     638:	80 ea       	ldi	r24, 0xA0	; 160
     63a:	8a 95       	dec	r24
     63c:	f1 f7       	brne	.-4      	; 0x63a <onewire_write+0x2e>
     63e:	0e 94 e2 02 	call	0x5c4	; 0x5c4 <onewire_pin_release>
     642:	8a e1       	ldi	r24, 0x1A	; 26
     644:	8a 95       	dec	r24
     646:	f1 f7       	brne	.-4      	; 0x644 <onewire_write+0x38>
     648:	00 c0       	rjmp	.+0      	; 0x64a <onewire_write+0x3e>
     64a:	16 95       	lsr	r17
     64c:	21 97       	sbiw	r28, 0x01	; 1
     64e:	21 f7       	brne	.-56     	; 0x618 <onewire_write+0xc>
     650:	df 91       	pop	r29
     652:	cf 91       	pop	r28
     654:	1f 91       	pop	r17
     656:	08 95       	ret

00000658 <onewire_read>:
     658:	1f 93       	push	r17
     65a:	cf 93       	push	r28
     65c:	df 93       	push	r29
     65e:	c0 e0       	ldi	r28, 0x00	; 0
     660:	d0 e0       	ldi	r29, 0x00	; 0
     662:	10 e0       	ldi	r17, 0x00	; 0
     664:	0e 94 e0 02 	call	0x5c0	; 0x5c0 <onewire_pin_low>
     668:	20 e1       	ldi	r18, 0x10	; 16
     66a:	2a 95       	dec	r18
     66c:	f1 f7       	brne	.-4      	; 0x66a <onewire_read+0x12>
     66e:	0e 94 e2 02 	call	0x5c4	; 0x5c4 <onewire_pin_release>
     672:	88 e1       	ldi	r24, 0x18	; 24
     674:	8a 95       	dec	r24
     676:	f1 f7       	brne	.-4      	; 0x674 <onewire_read+0x1c>
     678:	0e 94 e4 02 	call	0x5c8	; 0x5c8 <onewire_pin_read>
     67c:	90 e0       	ldi	r25, 0x00	; 0
     67e:	0c 2e       	mov	r0, r28
     680:	02 c0       	rjmp	.+4      	; 0x686 <onewire_read+0x2e>
     682:	88 0f       	add	r24, r24
     684:	99 1f       	adc	r25, r25
     686:	0a 94       	dec	r0
     688:	e2 f7       	brpl	.-8      	; 0x682 <onewire_read+0x2a>
     68a:	18 2b       	or	r17, r24
     68c:	82 e9       	ldi	r24, 0x92	; 146
     68e:	8a 95       	dec	r24
     690:	f1 f7       	brne	.-4      	; 0x68e <onewire_read+0x36>
     692:	00 c0       	rjmp	.+0      	; 0x694 <onewire_read+0x3c>
     694:	21 96       	adiw	r28, 0x01	; 1
     696:	c8 30       	cpi	r28, 0x08	; 8
     698:	d1 05       	cpc	r29, r1
     69a:	21 f7       	brne	.-56     	; 0x664 <onewire_read+0xc>
     69c:	81 2f       	mov	r24, r17
     69e:	df 91       	pop	r29
     6a0:	cf 91       	pop	r28
     6a2:	1f 91       	pop	r17
     6a4:	08 95       	ret

000006a6 <onewire_read_bytes>:
     6a6:	0f 93       	push	r16
     6a8:	1f 93       	push	r17
     6aa:	cf 93       	push	r28
     6ac:	df 93       	push	r29
     6ae:	18 16       	cp	r1, r24
     6b0:	19 06       	cpc	r1, r25
     6b2:	5c f4       	brge	.+22     	; 0x6ca <onewire_read_bytes+0x24>
     6b4:	c3 e2       	ldi	r28, 0x23	; 35
     6b6:	d1 e0       	ldi	r29, 0x01	; 1
     6b8:	8c 01       	movw	r16, r24
     6ba:	0d 5d       	subi	r16, 0xDD	; 221
     6bc:	1e 4f       	sbci	r17, 0xFE	; 254
     6be:	0e 94 2c 03 	call	0x658	; 0x658 <onewire_read>
     6c2:	89 93       	st	Y+, r24
     6c4:	c0 17       	cp	r28, r16
     6c6:	d1 07       	cpc	r29, r17
     6c8:	d1 f7       	brne	.-12     	; 0x6be <onewire_read_bytes+0x18>
     6ca:	df 91       	pop	r29
     6cc:	cf 91       	pop	r28
     6ce:	1f 91       	pop	r17
     6d0:	0f 91       	pop	r16
     6d2:	08 95       	ret

000006d4 <onewire_crc>:
     6d4:	18 16       	cp	r1, r24
     6d6:	19 06       	cpc	r1, r25
     6d8:	dc f4       	brge	.+54     	; 0x710 <onewire_crc+0x3c>
     6da:	e3 e2       	ldi	r30, 0x23	; 35
     6dc:	f1 e0       	ldi	r31, 0x01	; 1
     6de:	bc 01       	movw	r22, r24
     6e0:	6d 5d       	subi	r22, 0xDD	; 221
     6e2:	7e 4f       	sbci	r23, 0xFE	; 254
     6e4:	80 e0       	ldi	r24, 0x00	; 0
     6e6:	5c e8       	ldi	r21, 0x8C	; 140
     6e8:	40 e0       	ldi	r20, 0x00	; 0
     6ea:	91 91       	ld	r25, Z+
     6ec:	89 27       	eor	r24, r25
     6ee:	28 e0       	ldi	r18, 0x08	; 8
     6f0:	30 e0       	ldi	r19, 0x00	; 0
     6f2:	98 2f       	mov	r25, r24
     6f4:	96 95       	lsr	r25
     6f6:	80 fd       	sbrc	r24, 0
     6f8:	02 c0       	rjmp	.+4      	; 0x6fe <onewire_crc+0x2a>
     6fa:	84 2f       	mov	r24, r20
     6fc:	01 c0       	rjmp	.+2      	; 0x700 <onewire_crc+0x2c>
     6fe:	85 2f       	mov	r24, r21
     700:	89 27       	eor	r24, r25
     702:	21 50       	subi	r18, 0x01	; 1
     704:	31 09       	sbc	r19, r1
     706:	a9 f7       	brne	.-22     	; 0x6f2 <onewire_crc+0x1e>
     708:	e6 17       	cp	r30, r22
     70a:	f7 07       	cpc	r31, r23
     70c:	71 f7       	brne	.-36     	; 0x6ea <onewire_crc+0x16>
     70e:	08 95       	ret
     710:	80 e0       	ldi	r24, 0x00	; 0
     712:	08 95       	ret

00000714 <onewire_skip_rom>:
     714:	8c ec       	ldi	r24, 0xCC	; 204
     716:	0e 94 06 03 	call	0x60c	; 0x60c <onewire_write>
     71a:	08 95       	ret

0000071c <i2c_init>:
     71c:	80 e2       	ldi	r24, 0x20	; 32
     71e:	80 93 b8 00 	sts	0x00B8, r24	; 0x8000b8 <__DATA_REGION_ORIGIN__+0x58>
     722:	e9 eb       	ldi	r30, 0xB9	; 185
     724:	f0 e0       	ldi	r31, 0x00	; 0
     726:	80 81       	ld	r24, Z
     728:	10 82       	st	Z, r1
     72a:	8f ef       	ldi	r24, 0xFF	; 255
     72c:	80 93 bb 00 	sts	0x00BB, r24	; 0x8000bb <__DATA_REGION_ORIGIN__+0x5b>
     730:	84 e0       	ldi	r24, 0x04	; 4
     732:	80 93 bc 00 	sts	0x00BC, r24	; 0x8000bc <__DATA_REGION_ORIGIN__+0x5c>
     736:	10 92 ba 00 	sts	0x00BA, r1	; 0x8000ba <__DATA_REGION_ORIGIN__+0x5a>
     73a:	78 94       	sei
     73c:	81 e0       	ldi	r24, 0x01	; 1
     73e:	80 93 2d 01 	sts	0x012D, r24	; 0x80012d <i2c_status_OK>
     742:	08 95       	ret

00000744 <i2c_get_status>:
     744:	ec eb       	ldi	r30, 0xBC	; 188
     746:	f0 e0       	ldi	r31, 0x00	; 0
     748:	80 81       	ld	r24, Z
     74a:	80 fd       	sbrc	r24, 0
     74c:	fd cf       	rjmp	.-6      	; 0x748 <i2c_get_status+0x4>
     74e:	80 91 2d 01 	lds	r24, 0x012D	; 0x80012d <i2c_status_OK>
     752:	08 95       	ret

00000754 <i2c_start_write>:
     754:	cf 93       	push	r28
     756:	df 93       	push	r29
     758:	ec 01       	movw	r28, r24
     75a:	60 93 2c 01 	sts	0x012C, r22	; 0x80012c <i2c_data_size>
     75e:	ec eb       	ldi	r30, 0xBC	; 188
     760:	f0 e0       	ldi	r31, 0x00	; 0
     762:	90 81       	ld	r25, Z
     764:	90 fd       	sbrc	r25, 0
     766:	fd cf       	rjmp	.-6      	; 0x762 <i2c_start_write+0xe>
     768:	98 81       	ld	r25, Y
     76a:	90 ff       	sbrs	r25, 0
     76c:	0b c0       	rjmp	.+22     	; 0x784 <i2c_start_write+0x30>
     76e:	90 93 2e 01 	sts	0x012E, r25	; 0x80012e <i2c_buffer>
     772:	65 31       	cpi	r22, 0x15	; 21
     774:	20 f4       	brcc	.+8      	; 0x77e <i2c_start_write+0x2a>
     776:	81 e0       	ldi	r24, 0x01	; 1
     778:	80 93 2d 01 	sts	0x012D, r24	; 0x80012d <i2c_status_OK>
     77c:	1e c0       	rjmp	.+60     	; 0x7ba <i2c_start_write+0x66>
     77e:	10 92 2d 01 	sts	0x012D, r1	; 0x80012d <i2c_status_OK>
     782:	1e c0       	rjmp	.+60     	; 0x7c0 <i2c_start_write+0x6c>
     784:	65 31       	cpi	r22, 0x15	; 21
     786:	b0 f4       	brcc	.+44     	; 0x7b4 <i2c_start_write+0x60>
     788:	66 23       	and	r22, r22
     78a:	81 f0       	breq	.+32     	; 0x7ac <i2c_start_write+0x58>
     78c:	fe 01       	movw	r30, r28
     78e:	ae e2       	ldi	r26, 0x2E	; 46
     790:	b1 e0       	ldi	r27, 0x01	; 1
     792:	61 50       	subi	r22, 0x01	; 1
     794:	26 2f       	mov	r18, r22
     796:	30 e0       	ldi	r19, 0x00	; 0
     798:	2f 5f       	subi	r18, 0xFF	; 255
     79a:	3f 4f       	sbci	r19, 0xFF	; 255
     79c:	ce 01       	movw	r24, r28
     79e:	82 0f       	add	r24, r18
     7a0:	93 1f       	adc	r25, r19
     7a2:	21 91       	ld	r18, Z+
     7a4:	2d 93       	st	X+, r18
     7a6:	e8 17       	cp	r30, r24
     7a8:	f9 07       	cpc	r31, r25
     7aa:	d9 f7       	brne	.-10     	; 0x7a2 <i2c_start_write+0x4e>
     7ac:	81 e0       	ldi	r24, 0x01	; 1
     7ae:	80 93 2d 01 	sts	0x012D, r24	; 0x80012d <i2c_status_OK>
     7b2:	03 c0       	rjmp	.+6      	; 0x7ba <i2c_start_write+0x66>
     7b4:	10 92 2d 01 	sts	0x012D, r1	; 0x80012d <i2c_status_OK>
     7b8:	03 c0       	rjmp	.+6      	; 0x7c0 <i2c_start_write+0x6c>
     7ba:	85 ea       	ldi	r24, 0xA5	; 165
     7bc:	80 93 bc 00 	sts	0x00BC, r24	; 0x8000bc <__DATA_REGION_ORIGIN__+0x5c>
     7c0:	df 91       	pop	r29
     7c2:	cf 91       	pop	r28
     7c4:	08 95       	ret

000007c6 <i2c_read_buffer>:
     7c6:	ac 01       	movw	r20, r24
     7c8:	ec eb       	ldi	r30, 0xBC	; 188
     7ca:	f0 e0       	ldi	r31, 0x00	; 0
     7cc:	90 81       	ld	r25, Z
     7ce:	90 fd       	sbrc	r25, 0
     7d0:	fd cf       	rjmp	.-6      	; 0x7cc <i2c_read_buffer+0x6>
     7d2:	90 91 2d 01 	lds	r25, 0x012D	; 0x80012d <i2c_status_OK>
     7d6:	99 23       	and	r25, r25
     7d8:	a9 f0       	breq	.+42     	; 0x804 <i2c_read_buffer+0x3e>
     7da:	65 31       	cpi	r22, 0x15	; 21
     7dc:	a8 f4       	brcc	.+42     	; 0x808 <i2c_read_buffer+0x42>
     7de:	66 23       	and	r22, r22
     7e0:	a9 f0       	breq	.+42     	; 0x80c <i2c_read_buffer+0x46>
     7e2:	ae e2       	ldi	r26, 0x2E	; 46
     7e4:	b1 e0       	ldi	r27, 0x01	; 1
     7e6:	fa 01       	movw	r30, r20
     7e8:	61 50       	subi	r22, 0x01	; 1
     7ea:	26 2f       	mov	r18, r22
     7ec:	30 e0       	ldi	r19, 0x00	; 0
     7ee:	2f 5f       	subi	r18, 0xFF	; 255
     7f0:	3f 4f       	sbci	r19, 0xFF	; 255
     7f2:	24 0f       	add	r18, r20
     7f4:	35 1f       	adc	r19, r21
     7f6:	9d 91       	ld	r25, X+
     7f8:	91 93       	st	Z+, r25
     7fa:	e2 17       	cp	r30, r18
     7fc:	f3 07       	cpc	r31, r19
     7fe:	d9 f7       	brne	.-10     	; 0x7f6 <i2c_read_buffer+0x30>
     800:	81 e0       	ldi	r24, 0x01	; 1
     802:	08 95       	ret
     804:	80 e0       	ldi	r24, 0x00	; 0
     806:	08 95       	ret
     808:	80 e0       	ldi	r24, 0x00	; 0
     80a:	08 95       	ret
     80c:	81 e0       	ldi	r24, 0x01	; 1
     80e:	08 95       	ret

00000810 <__vector_24>:
     810:	1f 92       	push	r1
     812:	0f 92       	push	r0
     814:	0f b6       	in	r0, 0x3f	; 63
     816:	0f 92       	push	r0
     818:	11 24       	eor	r1, r1
     81a:	2f 93       	push	r18
     81c:	3f 93       	push	r19
     81e:	8f 93       	push	r24
     820:	9f 93       	push	r25
     822:	ef 93       	push	r30
     824:	ff 93       	push	r31
     826:	e0 91 b9 00 	lds	r30, 0x00B9	; 0x8000b9 <__DATA_REGION_ORIGIN__+0x59>
     82a:	f0 e0       	ldi	r31, 0x00	; 0
     82c:	ec 7f       	andi	r30, 0xFC	; 252
     82e:	38 97       	sbiw	r30, 0x08	; 8
     830:	e1 35       	cpi	r30, 0x51	; 81
     832:	f1 05       	cpc	r31, r1
     834:	08 f0       	brcs	.+2      	; 0x838 <__vector_24+0x28>
     836:	52 c0       	rjmp	.+164    	; 0x8dc <__vector_24+0xcc>
     838:	ec 5c       	subi	r30, 0xCC	; 204
     83a:	ff 4f       	sbci	r31, 0xFF	; 255
     83c:	0c 94 fe 12 	jmp	0x25fc	; 0x25fc <__tablejump2__>
     840:	10 92 22 01 	sts	0x0122, r1	; 0x800122 <__data_end>
     844:	e0 91 22 01 	lds	r30, 0x0122	; 0x800122 <__data_end>
     848:	80 91 2c 01 	lds	r24, 0x012C	; 0x80012c <i2c_data_size>
     84c:	e8 17       	cp	r30, r24
     84e:	78 f4       	brcc	.+30     	; 0x86e <__vector_24+0x5e>
     850:	f0 e0       	ldi	r31, 0x00	; 0
     852:	e2 5d       	subi	r30, 0xD2	; 210
     854:	fe 4f       	sbci	r31, 0xFE	; 254
     856:	80 81       	ld	r24, Z
     858:	80 93 bb 00 	sts	0x00BB, r24	; 0x8000bb <__DATA_REGION_ORIGIN__+0x5b>
     85c:	80 91 22 01 	lds	r24, 0x0122	; 0x800122 <__data_end>
     860:	8f 5f       	subi	r24, 0xFF	; 255
     862:	80 93 22 01 	sts	0x0122, r24	; 0x800122 <__data_end>
     866:	85 e8       	ldi	r24, 0x85	; 133
     868:	80 93 bc 00 	sts	0x00BC, r24	; 0x8000bc <__DATA_REGION_ORIGIN__+0x5c>
     86c:	3c c0       	rjmp	.+120    	; 0x8e6 <__vector_24+0xd6>
     86e:	84 e9       	ldi	r24, 0x94	; 148
     870:	80 93 bc 00 	sts	0x00BC, r24	; 0x8000bc <__DATA_REGION_ORIGIN__+0x5c>
     874:	81 e0       	ldi	r24, 0x01	; 1
     876:	80 93 2d 01 	sts	0x012D, r24	; 0x80012d <i2c_status_OK>
     87a:	35 c0       	rjmp	.+106    	; 0x8e6 <__vector_24+0xd6>
     87c:	80 91 22 01 	lds	r24, 0x0122	; 0x800122 <__data_end>
     880:	90 91 bb 00 	lds	r25, 0x00BB	; 0x8000bb <__DATA_REGION_ORIGIN__+0x5b>
     884:	e8 2f       	mov	r30, r24
     886:	f0 e0       	ldi	r31, 0x00	; 0
     888:	e2 5d       	subi	r30, 0xD2	; 210
     88a:	fe 4f       	sbci	r31, 0xFE	; 254
     88c:	90 83       	st	Z, r25
     88e:	8f 5f       	subi	r24, 0xFF	; 255
     890:	80 93 22 01 	sts	0x0122, r24	; 0x800122 <__data_end>
     894:	20 91 22 01 	lds	r18, 0x0122	; 0x800122 <__data_end>
     898:	30 e0       	ldi	r19, 0x00	; 0
     89a:	80 91 2c 01 	lds	r24, 0x012C	; 0x80012c <i2c_data_size>
     89e:	90 e0       	ldi	r25, 0x00	; 0
     8a0:	01 97       	sbiw	r24, 0x01	; 1
     8a2:	28 17       	cp	r18, r24
     8a4:	39 07       	cpc	r19, r25
     8a6:	24 f4       	brge	.+8      	; 0x8b0 <__vector_24+0xa0>
     8a8:	85 ec       	ldi	r24, 0xC5	; 197
     8aa:	80 93 bc 00 	sts	0x00BC, r24	; 0x8000bc <__DATA_REGION_ORIGIN__+0x5c>
     8ae:	1b c0       	rjmp	.+54     	; 0x8e6 <__vector_24+0xd6>
     8b0:	85 e8       	ldi	r24, 0x85	; 133
     8b2:	80 93 bc 00 	sts	0x00BC, r24	; 0x8000bc <__DATA_REGION_ORIGIN__+0x5c>
     8b6:	17 c0       	rjmp	.+46     	; 0x8e6 <__vector_24+0xd6>
     8b8:	80 91 bb 00 	lds	r24, 0x00BB	; 0x8000bb <__DATA_REGION_ORIGIN__+0x5b>
     8bc:	e0 91 22 01 	lds	r30, 0x0122	; 0x800122 <__data_end>
     8c0:	f0 e0       	ldi	r31, 0x00	; 0
     8c2:	e2 5d       	subi	r30, 0xD2	; 210
     8c4:	fe 4f       	sbci	r31, 0xFE	; 254
     8c6:	80 83       	st	Z, r24
     8c8:	81 e0       	ldi	r24, 0x01	; 1
     8ca:	80 93 2d 01 	sts	0x012D, r24	; 0x80012d <i2c_status_OK>
     8ce:	84 e9       	ldi	r24, 0x94	; 148
     8d0:	80 93 bc 00 	sts	0x00BC, r24	; 0x8000bc <__DATA_REGION_ORIGIN__+0x5c>
     8d4:	08 c0       	rjmp	.+16     	; 0x8e6 <__vector_24+0xd6>
     8d6:	85 ea       	ldi	r24, 0xA5	; 165
     8d8:	80 93 bc 00 	sts	0x00BC, r24	; 0x8000bc <__DATA_REGION_ORIGIN__+0x5c>
     8dc:	84 e0       	ldi	r24, 0x04	; 4
     8de:	80 93 bc 00 	sts	0x00BC, r24	; 0x8000bc <__DATA_REGION_ORIGIN__+0x5c>
     8e2:	10 92 2d 01 	sts	0x012D, r1	; 0x80012d <i2c_status_OK>
     8e6:	ff 91       	pop	r31
     8e8:	ef 91       	pop	r30
     8ea:	9f 91       	pop	r25
     8ec:	8f 91       	pop	r24
     8ee:	3f 91       	pop	r19
     8f0:	2f 91       	pop	r18
     8f2:	0f 90       	pop	r0
     8f4:	0f be       	out	0x3f, r0	; 63
     8f6:	0f 90       	pop	r0
     8f8:	1f 90       	pop	r1
     8fa:	18 95       	reti

000008fc <ds3231_write_register>:
     8fc:	cf 93       	push	r28
     8fe:	df 93       	push	r29
     900:	00 d0       	rcall	.+0      	; 0x902 <__stack+0x3>
     902:	1f 92       	push	r1
     904:	cd b7       	in	r28, 0x3d	; 61
     906:	de b7       	in	r29, 0x3e	; 62
     908:	90 ed       	ldi	r25, 0xD0	; 208
     90a:	99 83       	std	Y+1, r25	; 0x01
     90c:	8a 83       	std	Y+2, r24	; 0x02
     90e:	6b 83       	std	Y+3, r22	; 0x03
     910:	63 e0       	ldi	r22, 0x03	; 3
     912:	ce 01       	movw	r24, r28
     914:	01 96       	adiw	r24, 0x01	; 1
     916:	0e 94 aa 03 	call	0x754	; 0x754 <i2c_start_write>
     91a:	0e 94 a2 03 	call	0x744	; 0x744 <i2c_get_status>
     91e:	0f 90       	pop	r0
     920:	0f 90       	pop	r0
     922:	0f 90       	pop	r0
     924:	df 91       	pop	r29
     926:	cf 91       	pop	r28
     928:	08 95       	ret

0000092a <ds3231_read_register>:
     92a:	0f 93       	push	r16
     92c:	1f 93       	push	r17
     92e:	cf 93       	push	r28
     930:	df 93       	push	r29
     932:	00 d0       	rcall	.+0      	; 0x934 <ds3231_read_register+0xa>
     934:	cd b7       	in	r28, 0x3d	; 61
     936:	de b7       	in	r29, 0x3e	; 62
     938:	8b 01       	movw	r16, r22
     93a:	90 ed       	ldi	r25, 0xD0	; 208
     93c:	99 83       	std	Y+1, r25	; 0x01
     93e:	8a 83       	std	Y+2, r24	; 0x02
     940:	62 e0       	ldi	r22, 0x02	; 2
     942:	ce 01       	movw	r24, r28
     944:	01 96       	adiw	r24, 0x01	; 1
     946:	0e 94 aa 03 	call	0x754	; 0x754 <i2c_start_write>
     94a:	0e 94 a2 03 	call	0x744	; 0x744 <i2c_get_status>
     94e:	88 23       	and	r24, r24
     950:	b1 f0       	breq	.+44     	; 0x97e <ds3231_read_register+0x54>
     952:	81 ed       	ldi	r24, 0xD1	; 209
     954:	89 83       	std	Y+1, r24	; 0x01
     956:	62 e0       	ldi	r22, 0x02	; 2
     958:	ce 01       	movw	r24, r28
     95a:	01 96       	adiw	r24, 0x01	; 1
     95c:	0e 94 aa 03 	call	0x754	; 0x754 <i2c_start_write>
     960:	0e 94 a2 03 	call	0x744	; 0x744 <i2c_get_status>
     964:	88 23       	and	r24, r24
     966:	59 f0       	breq	.+22     	; 0x97e <ds3231_read_register+0x54>
     968:	62 e0       	ldi	r22, 0x02	; 2
     96a:	ce 01       	movw	r24, r28
     96c:	01 96       	adiw	r24, 0x01	; 1
     96e:	0e 94 e3 03 	call	0x7c6	; 0x7c6 <i2c_read_buffer>
     972:	88 23       	and	r24, r24
     974:	21 f0       	breq	.+8      	; 0x97e <ds3231_read_register+0x54>
     976:	8a 81       	ldd	r24, Y+2	; 0x02
     978:	f8 01       	movw	r30, r16
     97a:	80 83       	st	Z, r24
     97c:	81 e0       	ldi	r24, 0x01	; 1
     97e:	0f 90       	pop	r0
     980:	0f 90       	pop	r0
     982:	df 91       	pop	r29
     984:	cf 91       	pop	r28
     986:	1f 91       	pop	r17
     988:	0f 91       	pop	r16
     98a:	08 95       	ret

0000098c <ds3231_enable_alarm>:
     98c:	0f 93       	push	r16
     98e:	1f 93       	push	r17
     990:	cf 93       	push	r28
     992:	df 93       	push	r29
     994:	00 d0       	rcall	.+0      	; 0x996 <ds3231_enable_alarm+0xa>
     996:	cd b7       	in	r28, 0x3d	; 61
     998:	de b7       	in	r29, 0x3e	; 62
     99a:	1f ef       	ldi	r17, 0xFF	; 255
     99c:	18 0f       	add	r17, r24
     99e:	12 30       	cpi	r17, 0x02	; 2
     9a0:	50 f5       	brcc	.+84     	; 0x9f6 <ds3231_enable_alarm+0x6a>
     9a2:	be 01       	movw	r22, r28
     9a4:	6f 5f       	subi	r22, 0xFF	; 255
     9a6:	7f 4f       	sbci	r23, 0xFF	; 255
     9a8:	8f e0       	ldi	r24, 0x0F	; 15
     9aa:	0e 94 95 04 	call	0x92a	; 0x92a <ds3231_read_register>
     9ae:	88 23       	and	r24, r24
     9b0:	19 f1       	breq	.+70     	; 0x9f8 <ds3231_enable_alarm+0x6c>
     9b2:	61 e0       	ldi	r22, 0x01	; 1
     9b4:	70 e0       	ldi	r23, 0x00	; 0
     9b6:	cb 01       	movw	r24, r22
     9b8:	02 c0       	rjmp	.+4      	; 0x9be <ds3231_enable_alarm+0x32>
     9ba:	88 0f       	add	r24, r24
     9bc:	99 1f       	adc	r25, r25
     9be:	1a 95       	dec	r17
     9c0:	e2 f7       	brpl	.-8      	; 0x9ba <ds3231_enable_alarm+0x2e>
     9c2:	8c 01       	movw	r16, r24
     9c4:	68 2f       	mov	r22, r24
     9c6:	60 95       	com	r22
     9c8:	89 81       	ldd	r24, Y+1	; 0x01
     9ca:	68 23       	and	r22, r24
     9cc:	69 83       	std	Y+1, r22	; 0x01
     9ce:	8f e0       	ldi	r24, 0x0F	; 15
     9d0:	0e 94 7e 04 	call	0x8fc	; 0x8fc <ds3231_write_register>
     9d4:	88 23       	and	r24, r24
     9d6:	81 f0       	breq	.+32     	; 0x9f8 <ds3231_enable_alarm+0x6c>
     9d8:	be 01       	movw	r22, r28
     9da:	6e 5f       	subi	r22, 0xFE	; 254
     9dc:	7f 4f       	sbci	r23, 0xFF	; 255
     9de:	8e e0       	ldi	r24, 0x0E	; 14
     9e0:	0e 94 95 04 	call	0x92a	; 0x92a <ds3231_read_register>
     9e4:	88 23       	and	r24, r24
     9e6:	41 f0       	breq	.+16     	; 0x9f8 <ds3231_enable_alarm+0x6c>
     9e8:	6a 81       	ldd	r22, Y+2	; 0x02
     9ea:	60 2b       	or	r22, r16
     9ec:	6a 83       	std	Y+2, r22	; 0x02
     9ee:	8e e0       	ldi	r24, 0x0E	; 14
     9f0:	0e 94 7e 04 	call	0x8fc	; 0x8fc <ds3231_write_register>
     9f4:	01 c0       	rjmp	.+2      	; 0x9f8 <ds3231_enable_alarm+0x6c>
     9f6:	80 e0       	ldi	r24, 0x00	; 0
     9f8:	0f 90       	pop	r0
     9fa:	0f 90       	pop	r0
     9fc:	df 91       	pop	r29
     9fe:	cf 91       	pop	r28
     a00:	1f 91       	pop	r17
     a02:	0f 91       	pop	r16
     a04:	08 95       	ret

00000a06 <ds3231_disable_alarm>:
     a06:	1f 93       	push	r17
     a08:	cf 93       	push	r28
     a0a:	df 93       	push	r29
     a0c:	1f 92       	push	r1
     a0e:	cd b7       	in	r28, 0x3d	; 61
     a10:	de b7       	in	r29, 0x3e	; 62
     a12:	1f ef       	ldi	r17, 0xFF	; 255
     a14:	18 0f       	add	r17, r24
     a16:	12 30       	cpi	r17, 0x02	; 2
     a18:	b8 f4       	brcc	.+46     	; 0xa48 <ds3231_disable_alarm+0x42>
     a1a:	be 01       	movw	r22, r28
     a1c:	6f 5f       	subi	r22, 0xFF	; 255
     a1e:	7f 4f       	sbci	r23, 0xFF	; 255
     a20:	8e e0       	ldi	r24, 0x0E	; 14
     a22:	0e 94 95 04 	call	0x92a	; 0x92a <ds3231_read_register>
     a26:	88 23       	and	r24, r24
     a28:	81 f0       	breq	.+32     	; 0xa4a <ds3231_disable_alarm+0x44>
     a2a:	61 e0       	ldi	r22, 0x01	; 1
     a2c:	70 e0       	ldi	r23, 0x00	; 0
     a2e:	02 c0       	rjmp	.+4      	; 0xa34 <ds3231_disable_alarm+0x2e>
     a30:	66 0f       	add	r22, r22
     a32:	77 1f       	adc	r23, r23
     a34:	1a 95       	dec	r17
     a36:	e2 f7       	brpl	.-8      	; 0xa30 <ds3231_disable_alarm+0x2a>
     a38:	60 95       	com	r22
     a3a:	89 81       	ldd	r24, Y+1	; 0x01
     a3c:	68 23       	and	r22, r24
     a3e:	69 83       	std	Y+1, r22	; 0x01
     a40:	8e e0       	ldi	r24, 0x0E	; 14
     a42:	0e 94 7e 04 	call	0x8fc	; 0x8fc <ds3231_write_register>
     a46:	01 c0       	rjmp	.+2      	; 0xa4a <ds3231_disable_alarm+0x44>
     a48:	80 e0       	ldi	r24, 0x00	; 0
     a4a:	0f 90       	pop	r0
     a4c:	df 91       	pop	r29
     a4e:	cf 91       	pop	r28
     a50:	1f 91       	pop	r17
     a52:	08 95       	ret

00000a54 <ds3231_reset>:
     a54:	cf 93       	push	r28
     a56:	df 93       	push	r29
     a58:	00 d0       	rcall	.+0      	; 0xa5a <ds3231_reset+0x6>
     a5a:	1f 92       	push	r1
     a5c:	cd b7       	in	r28, 0x3d	; 61
     a5e:	de b7       	in	r29, 0x3e	; 62
     a60:	80 ed       	ldi	r24, 0xD0	; 208
     a62:	89 83       	std	Y+1, r24	; 0x01
     a64:	8e e0       	ldi	r24, 0x0E	; 14
     a66:	8a 83       	std	Y+2, r24	; 0x02
     a68:	1b 82       	std	Y+3, r1	; 0x03
     a6a:	63 e0       	ldi	r22, 0x03	; 3
     a6c:	ce 01       	movw	r24, r28
     a6e:	01 96       	adiw	r24, 0x01	; 1
     a70:	0e 94 aa 03 	call	0x754	; 0x754 <i2c_start_write>
     a74:	2f e7       	ldi	r18, 0x7F	; 127
     a76:	8a e1       	ldi	r24, 0x1A	; 26
     a78:	96 e0       	ldi	r25, 0x06	; 6
     a7a:	21 50       	subi	r18, 0x01	; 1
     a7c:	80 40       	sbci	r24, 0x00	; 0
     a7e:	90 40       	sbci	r25, 0x00	; 0
     a80:	e1 f7       	brne	.-8      	; 0xa7a <ds3231_reset+0x26>
     a82:	00 c0       	rjmp	.+0      	; 0xa84 <ds3231_reset+0x30>
     a84:	00 00       	nop
     a86:	0e 94 a2 03 	call	0x744	; 0x744 <i2c_get_status>
     a8a:	0f 90       	pop	r0
     a8c:	0f 90       	pop	r0
     a8e:	0f 90       	pop	r0
     a90:	df 91       	pop	r29
     a92:	cf 91       	pop	r28
     a94:	08 95       	ret

00000a96 <ds3231_disable_32kHz_pin>:
     a96:	cf 93       	push	r28
     a98:	df 93       	push	r29
     a9a:	1f 92       	push	r1
     a9c:	cd b7       	in	r28, 0x3d	; 61
     a9e:	de b7       	in	r29, 0x3e	; 62
     aa0:	be 01       	movw	r22, r28
     aa2:	6f 5f       	subi	r22, 0xFF	; 255
     aa4:	7f 4f       	sbci	r23, 0xFF	; 255
     aa6:	8f e0       	ldi	r24, 0x0F	; 15
     aa8:	0e 94 95 04 	call	0x92a	; 0x92a <ds3231_read_register>
     aac:	88 23       	and	r24, r24
     aae:	31 f0       	breq	.+12     	; 0xabc <ds3231_disable_32kHz_pin+0x26>
     ab0:	69 81       	ldd	r22, Y+1	; 0x01
     ab2:	67 7f       	andi	r22, 0xF7	; 247
     ab4:	69 83       	std	Y+1, r22	; 0x01
     ab6:	8f e0       	ldi	r24, 0x0F	; 15
     ab8:	0e 94 7e 04 	call	0x8fc	; 0x8fc <ds3231_write_register>
     abc:	0f 90       	pop	r0
     abe:	df 91       	pop	r29
     ac0:	cf 91       	pop	r28
     ac2:	08 95       	ret

00000ac4 <ds3231_enable_interrupt_pin>:
     ac4:	cf 93       	push	r28
     ac6:	df 93       	push	r29
     ac8:	1f 92       	push	r1
     aca:	cd b7       	in	r28, 0x3d	; 61
     acc:	de b7       	in	r29, 0x3e	; 62
     ace:	be 01       	movw	r22, r28
     ad0:	6f 5f       	subi	r22, 0xFF	; 255
     ad2:	7f 4f       	sbci	r23, 0xFF	; 255
     ad4:	8e e0       	ldi	r24, 0x0E	; 14
     ad6:	0e 94 95 04 	call	0x92a	; 0x92a <ds3231_read_register>
     ada:	88 23       	and	r24, r24
     adc:	31 f0       	breq	.+12     	; 0xaea <ds3231_enable_interrupt_pin+0x26>
     ade:	69 81       	ldd	r22, Y+1	; 0x01
     ae0:	64 60       	ori	r22, 0x04	; 4
     ae2:	69 83       	std	Y+1, r22	; 0x01
     ae4:	8e e0       	ldi	r24, 0x0E	; 14
     ae6:	0e 94 7e 04 	call	0x8fc	; 0x8fc <ds3231_write_register>
     aea:	0f 90       	pop	r0
     aec:	df 91       	pop	r29
     aee:	cf 91       	pop	r28
     af0:	08 95       	ret

00000af2 <ds3231_set_datetime>:
     af2:	cf 92       	push	r12
     af4:	df 92       	push	r13
     af6:	ef 92       	push	r14
     af8:	0f 93       	push	r16
     afa:	1f 93       	push	r17
     afc:	cf 93       	push	r28
     afe:	df 93       	push	r29
     b00:	8c 33       	cpi	r24, 0x3C	; 60
     b02:	08 f0       	brcs	.+2      	; 0xb06 <ds3231_set_datetime+0x14>
     b04:	bd c0       	rjmp	.+378    	; 0xc80 <ds3231_set_datetime+0x18e>
     b06:	6c 33       	cpi	r22, 0x3C	; 60
     b08:	08 f0       	brcs	.+2      	; 0xb0c <ds3231_set_datetime+0x1a>
     b0a:	bc c0       	rjmp	.+376    	; 0xc84 <ds3231_set_datetime+0x192>
     b0c:	48 31       	cpi	r20, 0x18	; 24
     b0e:	08 f0       	brcs	.+2      	; 0xb12 <ds3231_set_datetime+0x20>
     b10:	bb c0       	rjmp	.+374    	; 0xc88 <ds3231_set_datetime+0x196>
     b12:	9f ef       	ldi	r25, 0xFF	; 255
     b14:	92 0f       	add	r25, r18
     b16:	97 30       	cpi	r25, 0x07	; 7
     b18:	08 f0       	brcs	.+2      	; 0xb1c <ds3231_set_datetime+0x2a>
     b1a:	b8 c0       	rjmp	.+368    	; 0xc8c <ds3231_set_datetime+0x19a>
     b1c:	9f ef       	ldi	r25, 0xFF	; 255
     b1e:	90 0f       	add	r25, r16
     b20:	9f 31       	cpi	r25, 0x1F	; 31
     b22:	08 f0       	brcs	.+2      	; 0xb26 <ds3231_set_datetime+0x34>
     b24:	b5 c0       	rjmp	.+362    	; 0xc90 <ds3231_set_datetime+0x19e>
     b26:	9f ef       	ldi	r25, 0xFF	; 255
     b28:	9e 0d       	add	r25, r14
     b2a:	9c 30       	cpi	r25, 0x0C	; 12
     b2c:	08 f0       	brcs	.+2      	; 0xb30 <ds3231_set_datetime+0x3e>
     b2e:	b2 c0       	rjmp	.+356    	; 0xc94 <ds3231_set_datetime+0x1a2>
     b30:	34 e6       	ldi	r19, 0x64	; 100
     b32:	c3 16       	cp	r12, r19
     b34:	d1 04       	cpc	r13, r1
     b36:	08 f0       	brcs	.+2      	; 0xb3a <ds3231_set_datetime+0x48>
     b38:	af c0       	rjmp	.+350    	; 0xc98 <ds3231_set_datetime+0x1a6>
     b3a:	12 2f       	mov	r17, r18
     b3c:	d4 2f       	mov	r29, r20
     b3e:	c6 2f       	mov	r28, r22
     b40:	9d ec       	ldi	r25, 0xCD	; 205
     b42:	89 9f       	mul	r24, r25
     b44:	91 2d       	mov	r25, r1
     b46:	11 24       	eor	r1, r1
     b48:	96 95       	lsr	r25
     b4a:	96 95       	lsr	r25
     b4c:	96 95       	lsr	r25
     b4e:	40 e1       	ldi	r20, 0x10	; 16
     b50:	94 9f       	mul	r25, r20
     b52:	b0 01       	movw	r22, r0
     b54:	11 24       	eor	r1, r1
     b56:	99 0f       	add	r25, r25
     b58:	29 2f       	mov	r18, r25
     b5a:	22 0f       	add	r18, r18
     b5c:	22 0f       	add	r18, r18
     b5e:	92 0f       	add	r25, r18
     b60:	89 1b       	sub	r24, r25
     b62:	68 2b       	or	r22, r24
     b64:	80 e0       	ldi	r24, 0x00	; 0
     b66:	0e 94 7e 04 	call	0x8fc	; 0x8fc <ds3231_write_register>
     b6a:	88 23       	and	r24, r24
     b6c:	09 f4       	brne	.+2      	; 0xb70 <ds3231_set_datetime+0x7e>
     b6e:	7c c0       	rjmp	.+248    	; 0xc68 <ds3231_set_datetime+0x176>
     b70:	8d ec       	ldi	r24, 0xCD	; 205
     b72:	c8 9f       	mul	r28, r24
     b74:	81 2d       	mov	r24, r1
     b76:	11 24       	eor	r1, r1
     b78:	86 95       	lsr	r24
     b7a:	86 95       	lsr	r24
     b7c:	86 95       	lsr	r24
     b7e:	90 e1       	ldi	r25, 0x10	; 16
     b80:	89 9f       	mul	r24, r25
     b82:	90 01       	movw	r18, r0
     b84:	11 24       	eor	r1, r1
     b86:	88 0f       	add	r24, r24
     b88:	98 2f       	mov	r25, r24
     b8a:	99 0f       	add	r25, r25
     b8c:	99 0f       	add	r25, r25
     b8e:	89 0f       	add	r24, r25
     b90:	6c 2f       	mov	r22, r28
     b92:	68 1b       	sub	r22, r24
     b94:	62 2b       	or	r22, r18
     b96:	81 e0       	ldi	r24, 0x01	; 1
     b98:	0e 94 7e 04 	call	0x8fc	; 0x8fc <ds3231_write_register>
     b9c:	88 23       	and	r24, r24
     b9e:	09 f4       	brne	.+2      	; 0xba2 <ds3231_set_datetime+0xb0>
     ba0:	65 c0       	rjmp	.+202    	; 0xc6c <ds3231_set_datetime+0x17a>
     ba2:	8d ec       	ldi	r24, 0xCD	; 205
     ba4:	d8 9f       	mul	r29, r24
     ba6:	21 2d       	mov	r18, r1
     ba8:	11 24       	eor	r1, r1
     baa:	92 2f       	mov	r25, r18
     bac:	92 95       	swap	r25
     bae:	9f 70       	andi	r25, 0x0F	; 15
     bb0:	99 0f       	add	r25, r25
     bb2:	99 0f       	add	r25, r25
     bb4:	39 2f       	mov	r19, r25
     bb6:	33 0f       	add	r19, r19
     bb8:	33 0f       	add	r19, r19
     bba:	93 0f       	add	r25, r19
     bbc:	d9 1b       	sub	r29, r25
     bbe:	9d 2f       	mov	r25, r29
     bc0:	22 95       	swap	r18
     bc2:	2f 70       	andi	r18, 0x0F	; 15
     bc4:	40 e4       	ldi	r20, 0x40	; 64
     bc6:	24 9f       	mul	r18, r20
     bc8:	90 01       	movw	r18, r0
     bca:	11 24       	eor	r1, r1
     bcc:	d8 9f       	mul	r29, r24
     bce:	81 2d       	mov	r24, r1
     bd0:	11 24       	eor	r1, r1
     bd2:	86 95       	lsr	r24
     bd4:	86 95       	lsr	r24
     bd6:	86 95       	lsr	r24
     bd8:	48 2f       	mov	r20, r24
     bda:	44 0f       	add	r20, r20
     bdc:	34 2f       	mov	r19, r20
     bde:	33 0f       	add	r19, r19
     be0:	33 0f       	add	r19, r19
     be2:	34 0f       	add	r19, r20
     be4:	93 1b       	sub	r25, r19
     be6:	29 2b       	or	r18, r25
     be8:	30 e2       	ldi	r19, 0x20	; 32
     bea:	83 9f       	mul	r24, r19
     bec:	c0 01       	movw	r24, r0
     bee:	11 24       	eor	r1, r1
     bf0:	62 2f       	mov	r22, r18
     bf2:	68 2b       	or	r22, r24
     bf4:	82 e0       	ldi	r24, 0x02	; 2
     bf6:	0e 94 7e 04 	call	0x8fc	; 0x8fc <ds3231_write_register>
     bfa:	88 23       	and	r24, r24
     bfc:	c9 f1       	breq	.+114    	; 0xc70 <ds3231_set_datetime+0x17e>
     bfe:	61 2f       	mov	r22, r17
     c00:	83 e0       	ldi	r24, 0x03	; 3
     c02:	0e 94 7e 04 	call	0x8fc	; 0x8fc <ds3231_write_register>
     c06:	88 23       	and	r24, r24
     c08:	a9 f1       	breq	.+106    	; 0xc74 <ds3231_set_datetime+0x182>
     c0a:	80 2f       	mov	r24, r16
     c0c:	6a e0       	ldi	r22, 0x0A	; 10
     c0e:	0e 94 89 12 	call	0x2512	; 0x2512 <__udivmodqi4>
     c12:	69 2f       	mov	r22, r25
     c14:	40 e1       	ldi	r20, 0x10	; 16
     c16:	84 9f       	mul	r24, r20
     c18:	c0 01       	movw	r24, r0
     c1a:	11 24       	eor	r1, r1
     c1c:	68 2b       	or	r22, r24
     c1e:	84 e0       	ldi	r24, 0x04	; 4
     c20:	0e 94 7e 04 	call	0x8fc	; 0x8fc <ds3231_write_register>
     c24:	88 23       	and	r24, r24
     c26:	41 f1       	breq	.+80     	; 0xc78 <ds3231_set_datetime+0x186>
     c28:	8e 2d       	mov	r24, r14
     c2a:	6a e0       	ldi	r22, 0x0A	; 10
     c2c:	0e 94 89 12 	call	0x2512	; 0x2512 <__udivmodqi4>
     c30:	69 2f       	mov	r22, r25
     c32:	20 e1       	ldi	r18, 0x10	; 16
     c34:	82 9f       	mul	r24, r18
     c36:	c0 01       	movw	r24, r0
     c38:	11 24       	eor	r1, r1
     c3a:	68 2b       	or	r22, r24
     c3c:	85 e0       	ldi	r24, 0x05	; 5
     c3e:	0e 94 7e 04 	call	0x8fc	; 0x8fc <ds3231_write_register>
     c42:	88 23       	and	r24, r24
     c44:	d9 f0       	breq	.+54     	; 0xc7c <ds3231_set_datetime+0x18a>
     c46:	c6 01       	movw	r24, r12
     c48:	6a e0       	ldi	r22, 0x0A	; 10
     c4a:	70 e0       	ldi	r23, 0x00	; 0
     c4c:	0e 94 95 12 	call	0x252a	; 0x252a <__udivmodhi4>
     c50:	62 95       	swap	r22
     c52:	60 7f       	andi	r22, 0xF0	; 240
     c54:	68 2b       	or	r22, r24
     c56:	86 e0       	ldi	r24, 0x06	; 6
     c58:	0e 94 7e 04 	call	0x8fc	; 0x8fc <ds3231_write_register>
     c5c:	91 e0       	ldi	r25, 0x01	; 1
     c5e:	81 11       	cpse	r24, r1
     c60:	01 c0       	rjmp	.+2      	; 0xc64 <ds3231_set_datetime+0x172>
     c62:	90 e0       	ldi	r25, 0x00	; 0
     c64:	89 2f       	mov	r24, r25
     c66:	19 c0       	rjmp	.+50     	; 0xc9a <ds3231_set_datetime+0x1a8>
     c68:	80 e0       	ldi	r24, 0x00	; 0
     c6a:	17 c0       	rjmp	.+46     	; 0xc9a <ds3231_set_datetime+0x1a8>
     c6c:	80 e0       	ldi	r24, 0x00	; 0
     c6e:	15 c0       	rjmp	.+42     	; 0xc9a <ds3231_set_datetime+0x1a8>
     c70:	80 e0       	ldi	r24, 0x00	; 0
     c72:	13 c0       	rjmp	.+38     	; 0xc9a <ds3231_set_datetime+0x1a8>
     c74:	80 e0       	ldi	r24, 0x00	; 0
     c76:	11 c0       	rjmp	.+34     	; 0xc9a <ds3231_set_datetime+0x1a8>
     c78:	80 e0       	ldi	r24, 0x00	; 0
     c7a:	0f c0       	rjmp	.+30     	; 0xc9a <ds3231_set_datetime+0x1a8>
     c7c:	80 e0       	ldi	r24, 0x00	; 0
     c7e:	0d c0       	rjmp	.+26     	; 0xc9a <ds3231_set_datetime+0x1a8>
     c80:	80 e0       	ldi	r24, 0x00	; 0
     c82:	0b c0       	rjmp	.+22     	; 0xc9a <ds3231_set_datetime+0x1a8>
     c84:	80 e0       	ldi	r24, 0x00	; 0
     c86:	09 c0       	rjmp	.+18     	; 0xc9a <ds3231_set_datetime+0x1a8>
     c88:	80 e0       	ldi	r24, 0x00	; 0
     c8a:	07 c0       	rjmp	.+14     	; 0xc9a <ds3231_set_datetime+0x1a8>
     c8c:	80 e0       	ldi	r24, 0x00	; 0
     c8e:	05 c0       	rjmp	.+10     	; 0xc9a <ds3231_set_datetime+0x1a8>
     c90:	80 e0       	ldi	r24, 0x00	; 0
     c92:	03 c0       	rjmp	.+6      	; 0xc9a <ds3231_set_datetime+0x1a8>
     c94:	80 e0       	ldi	r24, 0x00	; 0
     c96:	01 c0       	rjmp	.+2      	; 0xc9a <ds3231_set_datetime+0x1a8>
     c98:	80 e0       	ldi	r24, 0x00	; 0
     c9a:	df 91       	pop	r29
     c9c:	cf 91       	pop	r28
     c9e:	1f 91       	pop	r17
     ca0:	0f 91       	pop	r16
     ca2:	ef 90       	pop	r14
     ca4:	df 90       	pop	r13
     ca6:	cf 90       	pop	r12
     ca8:	08 95       	ret

00000caa <ds3231_set_alarm_1>:
     caa:	ef 92       	push	r14
     cac:	0f 93       	push	r16
     cae:	1f 93       	push	r17
     cb0:	cf 93       	push	r28
     cb2:	df 93       	push	r29
     cb4:	c6 2f       	mov	r28, r22
     cb6:	14 2f       	mov	r17, r20
     cb8:	d2 2f       	mov	r29, r18
     cba:	8c 33       	cpi	r24, 0x3C	; 60
     cbc:	08 f0       	brcs	.+2      	; 0xcc0 <ds3231_set_alarm_1+0x16>
     cbe:	b1 c0       	rjmp	.+354    	; 0xe22 <ds3231_set_alarm_1+0x178>
     cc0:	6c 33       	cpi	r22, 0x3C	; 60
     cc2:	08 f0       	brcs	.+2      	; 0xcc6 <ds3231_set_alarm_1+0x1c>
     cc4:	b0 c0       	rjmp	.+352    	; 0xe26 <ds3231_set_alarm_1+0x17c>
     cc6:	48 31       	cpi	r20, 0x18	; 24
     cc8:	08 f0       	brcs	.+2      	; 0xccc <ds3231_set_alarm_1+0x22>
     cca:	af c0       	rjmp	.+350    	; 0xe2a <ds3231_set_alarm_1+0x180>
     ccc:	ee 20       	and	r14, r14
     cce:	31 f0       	breq	.+12     	; 0xcdc <ds3231_set_alarm_1+0x32>
     cd0:	9f ef       	ldi	r25, 0xFF	; 255
     cd2:	92 0f       	add	r25, r18
     cd4:	97 30       	cpi	r25, 0x07	; 7
     cd6:	c8 f0       	brcs	.+50     	; 0xd0a <ds3231_set_alarm_1+0x60>
     cd8:	80 e0       	ldi	r24, 0x00	; 0
     cda:	aa c0       	rjmp	.+340    	; 0xe30 <ds3231_set_alarm_1+0x186>
     cdc:	9f ef       	ldi	r25, 0xFF	; 255
     cde:	92 0f       	add	r25, r18
     ce0:	9f 31       	cpi	r25, 0x1F	; 31
     ce2:	08 f0       	brcs	.+2      	; 0xce6 <ds3231_set_alarm_1+0x3c>
     ce4:	a4 c0       	rjmp	.+328    	; 0xe2e <ds3231_set_alarm_1+0x184>
     ce6:	9d ec       	ldi	r25, 0xCD	; 205
     ce8:	29 9f       	mul	r18, r25
     cea:	91 2d       	mov	r25, r1
     cec:	11 24       	eor	r1, r1
     cee:	96 95       	lsr	r25
     cf0:	96 95       	lsr	r25
     cf2:	96 95       	lsr	r25
     cf4:	20 e1       	ldi	r18, 0x10	; 16
     cf6:	92 9f       	mul	r25, r18
     cf8:	a0 01       	movw	r20, r0
     cfa:	11 24       	eor	r1, r1
     cfc:	99 0f       	add	r25, r25
     cfe:	29 2f       	mov	r18, r25
     d00:	22 0f       	add	r18, r18
     d02:	22 0f       	add	r18, r18
     d04:	92 0f       	add	r25, r18
     d06:	d9 1b       	sub	r29, r25
     d08:	d4 2b       	or	r29, r20
     d0a:	2d ec       	ldi	r18, 0xCD	; 205
     d0c:	82 9f       	mul	r24, r18
     d0e:	21 2d       	mov	r18, r1
     d10:	11 24       	eor	r1, r1
     d12:	92 2f       	mov	r25, r18
     d14:	96 95       	lsr	r25
     d16:	96 95       	lsr	r25
     d18:	96 95       	lsr	r25
     d1a:	39 2f       	mov	r19, r25
     d1c:	33 0f       	add	r19, r19
     d1e:	23 2f       	mov	r18, r19
     d20:	22 0f       	add	r18, r18
     d22:	22 0f       	add	r18, r18
     d24:	23 0f       	add	r18, r19
     d26:	82 1b       	sub	r24, r18
     d28:	40 e8       	ldi	r20, 0x80	; 128
     d2a:	04 9f       	mul	r16, r20
     d2c:	b0 01       	movw	r22, r0
     d2e:	11 24       	eor	r1, r1
     d30:	86 2b       	or	r24, r22
     d32:	40 e1       	ldi	r20, 0x10	; 16
     d34:	94 9f       	mul	r25, r20
     d36:	90 01       	movw	r18, r0
     d38:	11 24       	eor	r1, r1
     d3a:	68 2f       	mov	r22, r24
     d3c:	62 2b       	or	r22, r18
     d3e:	87 e0       	ldi	r24, 0x07	; 7
     d40:	0e 94 7e 04 	call	0x8fc	; 0x8fc <ds3231_write_register>
     d44:	88 23       	and	r24, r24
     d46:	09 f4       	brne	.+2      	; 0xd4a <ds3231_set_alarm_1+0xa0>
     d48:	66 c0       	rjmp	.+204    	; 0xe16 <ds3231_set_alarm_1+0x16c>
     d4a:	60 2f       	mov	r22, r16
     d4c:	62 70       	andi	r22, 0x02	; 2
     d4e:	62 95       	swap	r22
     d50:	66 0f       	add	r22, r22
     d52:	66 0f       	add	r22, r22
     d54:	60 7c       	andi	r22, 0xC0	; 192
     d56:	8d ec       	ldi	r24, 0xCD	; 205
     d58:	c8 9f       	mul	r28, r24
     d5a:	81 2d       	mov	r24, r1
     d5c:	11 24       	eor	r1, r1
     d5e:	86 95       	lsr	r24
     d60:	86 95       	lsr	r24
     d62:	86 95       	lsr	r24
     d64:	28 2f       	mov	r18, r24
     d66:	22 0f       	add	r18, r18
     d68:	92 2f       	mov	r25, r18
     d6a:	99 0f       	add	r25, r25
     d6c:	99 0f       	add	r25, r25
     d6e:	92 0f       	add	r25, r18
     d70:	c9 1b       	sub	r28, r25
     d72:	c6 2b       	or	r28, r22
     d74:	90 e1       	ldi	r25, 0x10	; 16
     d76:	89 9f       	mul	r24, r25
     d78:	b0 01       	movw	r22, r0
     d7a:	11 24       	eor	r1, r1
     d7c:	6c 2b       	or	r22, r28
     d7e:	88 e0       	ldi	r24, 0x08	; 8
     d80:	0e 94 7e 04 	call	0x8fc	; 0x8fc <ds3231_write_register>
     d84:	88 23       	and	r24, r24
     d86:	09 f4       	brne	.+2      	; 0xd8a <ds3231_set_alarm_1+0xe0>
     d88:	48 c0       	rjmp	.+144    	; 0xe1a <ds3231_set_alarm_1+0x170>
     d8a:	8d ec       	ldi	r24, 0xCD	; 205
     d8c:	18 9f       	mul	r17, r24
     d8e:	31 2d       	mov	r19, r1
     d90:	11 24       	eor	r1, r1
     d92:	23 2f       	mov	r18, r19
     d94:	22 95       	swap	r18
     d96:	2f 70       	andi	r18, 0x0F	; 15
     d98:	22 0f       	add	r18, r18
     d9a:	22 0f       	add	r18, r18
     d9c:	92 2f       	mov	r25, r18
     d9e:	99 0f       	add	r25, r25
     da0:	99 0f       	add	r25, r25
     da2:	29 0f       	add	r18, r25
     da4:	12 1b       	sub	r17, r18
     da6:	21 2f       	mov	r18, r17
     da8:	60 2f       	mov	r22, r16
     daa:	64 70       	andi	r22, 0x04	; 4
     dac:	62 95       	swap	r22
     dae:	66 0f       	add	r22, r22
     db0:	60 7e       	andi	r22, 0xE0	; 224
     db2:	18 9f       	mul	r17, r24
     db4:	81 2d       	mov	r24, r1
     db6:	11 24       	eor	r1, r1
     db8:	98 2f       	mov	r25, r24
     dba:	96 95       	lsr	r25
     dbc:	96 95       	lsr	r25
     dbe:	96 95       	lsr	r25
     dc0:	49 2f       	mov	r20, r25
     dc2:	44 0f       	add	r20, r20
     dc4:	84 2f       	mov	r24, r20
     dc6:	88 0f       	add	r24, r24
     dc8:	88 0f       	add	r24, r24
     dca:	84 0f       	add	r24, r20
     dcc:	28 1b       	sub	r18, r24
     dce:	26 2b       	or	r18, r22
     dd0:	32 95       	swap	r19
     dd2:	3f 70       	andi	r19, 0x0F	; 15
     dd4:	40 e4       	ldi	r20, 0x40	; 64
     dd6:	34 9f       	mul	r19, r20
     dd8:	b0 01       	movw	r22, r0
     dda:	11 24       	eor	r1, r1
     ddc:	62 2b       	or	r22, r18
     dde:	20 e2       	ldi	r18, 0x20	; 32
     de0:	92 9f       	mul	r25, r18
     de2:	c0 01       	movw	r24, r0
     de4:	11 24       	eor	r1, r1
     de6:	68 2b       	or	r22, r24
     de8:	89 e0       	ldi	r24, 0x09	; 9
     dea:	0e 94 7e 04 	call	0x8fc	; 0x8fc <ds3231_write_register>
     dee:	88 23       	and	r24, r24
     df0:	b1 f0       	breq	.+44     	; 0xe1e <ds3231_set_alarm_1+0x174>
     df2:	60 2f       	mov	r22, r16
     df4:	68 70       	andi	r22, 0x08	; 8
     df6:	62 95       	swap	r22
     df8:	60 7f       	andi	r22, 0xF0	; 240
     dfa:	00 71       	andi	r16, 0x10	; 16
     dfc:	00 0f       	add	r16, r16
     dfe:	00 0f       	add	r16, r16
     e00:	60 2b       	or	r22, r16
     e02:	6d 2b       	or	r22, r29
     e04:	8a e0       	ldi	r24, 0x0A	; 10
     e06:	0e 94 7e 04 	call	0x8fc	; 0x8fc <ds3231_write_register>
     e0a:	91 e0       	ldi	r25, 0x01	; 1
     e0c:	81 11       	cpse	r24, r1
     e0e:	01 c0       	rjmp	.+2      	; 0xe12 <ds3231_set_alarm_1+0x168>
     e10:	90 e0       	ldi	r25, 0x00	; 0
     e12:	89 2f       	mov	r24, r25
     e14:	0d c0       	rjmp	.+26     	; 0xe30 <ds3231_set_alarm_1+0x186>
     e16:	80 e0       	ldi	r24, 0x00	; 0
     e18:	0b c0       	rjmp	.+22     	; 0xe30 <ds3231_set_alarm_1+0x186>
     e1a:	80 e0       	ldi	r24, 0x00	; 0
     e1c:	09 c0       	rjmp	.+18     	; 0xe30 <ds3231_set_alarm_1+0x186>
     e1e:	80 e0       	ldi	r24, 0x00	; 0
     e20:	07 c0       	rjmp	.+14     	; 0xe30 <ds3231_set_alarm_1+0x186>
     e22:	80 e0       	ldi	r24, 0x00	; 0
     e24:	05 c0       	rjmp	.+10     	; 0xe30 <ds3231_set_alarm_1+0x186>
     e26:	80 e0       	ldi	r24, 0x00	; 0
     e28:	03 c0       	rjmp	.+6      	; 0xe30 <ds3231_set_alarm_1+0x186>
     e2a:	80 e0       	ldi	r24, 0x00	; 0
     e2c:	01 c0       	rjmp	.+2      	; 0xe30 <ds3231_set_alarm_1+0x186>
     e2e:	80 e0       	ldi	r24, 0x00	; 0
     e30:	df 91       	pop	r29
     e32:	cf 91       	pop	r28
     e34:	1f 91       	pop	r17
     e36:	0f 91       	pop	r16
     e38:	ef 90       	pop	r14
     e3a:	08 95       	ret

00000e3c <ds3231_enable_alarm_1>:
     e3c:	81 e0       	ldi	r24, 0x01	; 1
     e3e:	0e 94 c6 04 	call	0x98c	; 0x98c <ds3231_enable_alarm>
     e42:	08 95       	ret

00000e44 <ds3231_disable_alarm_2>:
     e44:	82 e0       	ldi	r24, 0x02	; 2
     e46:	0e 94 03 05 	call	0xa06	; 0xa06 <ds3231_disable_alarm>
     e4a:	08 95       	ret

00000e4c <ds3231_clear_alarm_flags>:
     e4c:	0f 93       	push	r16
     e4e:	1f 93       	push	r17
     e50:	cf 93       	push	r28
     e52:	df 93       	push	r29
     e54:	1f 92       	push	r1
     e56:	cd b7       	in	r28, 0x3d	; 61
     e58:	de b7       	in	r29, 0x3e	; 62
     e5a:	8c 01       	movw	r16, r24
     e5c:	be 01       	movw	r22, r28
     e5e:	6f 5f       	subi	r22, 0xFF	; 255
     e60:	7f 4f       	sbci	r23, 0xFF	; 255
     e62:	8f e0       	ldi	r24, 0x0F	; 15
     e64:	0e 94 95 04 	call	0x92a	; 0x92a <ds3231_read_register>
     e68:	88 23       	and	r24, r24
     e6a:	91 f0       	breq	.+36     	; 0xe90 <ds3231_clear_alarm_flags+0x44>
     e6c:	f8 01       	movw	r30, r16
     e6e:	10 82       	st	Z, r1
     e70:	69 81       	ldd	r22, Y+1	; 0x01
     e72:	60 ff       	sbrs	r22, 0
     e74:	02 c0       	rjmp	.+4      	; 0xe7a <ds3231_clear_alarm_flags+0x2e>
     e76:	81 e0       	ldi	r24, 0x01	; 1
     e78:	80 83       	st	Z, r24
     e7a:	61 ff       	sbrs	r22, 1
     e7c:	04 c0       	rjmp	.+8      	; 0xe86 <ds3231_clear_alarm_flags+0x3a>
     e7e:	f8 01       	movw	r30, r16
     e80:	80 81       	ld	r24, Z
     e82:	8e 5f       	subi	r24, 0xFE	; 254
     e84:	80 83       	st	Z, r24
     e86:	6c 7f       	andi	r22, 0xFC	; 252
     e88:	69 83       	std	Y+1, r22	; 0x01
     e8a:	8f e0       	ldi	r24, 0x0F	; 15
     e8c:	0e 94 7e 04 	call	0x8fc	; 0x8fc <ds3231_write_register>
     e90:	0f 90       	pop	r0
     e92:	df 91       	pop	r29
     e94:	cf 91       	pop	r28
     e96:	1f 91       	pop	r17
     e98:	0f 91       	pop	r16
     e9a:	08 95       	ret

00000e9c <ds18b20_setup>:
     e9c:	cf 93       	push	r28
     e9e:	c8 2f       	mov	r28, r24
     ea0:	f8 94       	cli
     ea2:	0e 94 e8 02 	call	0x5d0	; 0x5d0 <onewire_init>
     ea6:	0e 94 ea 02 	call	0x5d4	; 0x5d4 <onewire_reset>
     eaa:	88 23       	and	r24, r24
     eac:	d1 f1       	breq	.+116    	; 0xf22 <ds18b20_setup+0x86>
     eae:	0e 94 8a 03 	call	0x714	; 0x714 <onewire_skip_rom>
     eb2:	ca 30       	cpi	r28, 0x0A	; 10
     eb4:	e9 f1       	breq	.+122    	; 0xf30 <ds18b20_setup+0x94>
     eb6:	18 f4       	brcc	.+6      	; 0xebe <ds18b20_setup+0x22>
     eb8:	c9 30       	cpi	r28, 0x09	; 9
     eba:	41 f0       	breq	.+16     	; 0xecc <ds18b20_setup+0x30>
     ebc:	34 c0       	rjmp	.+104    	; 0xf26 <ds18b20_setup+0x8a>
     ebe:	cb 30       	cpi	r28, 0x0B	; 11
     ec0:	19 f0       	breq	.+6      	; 0xec8 <ds18b20_setup+0x2c>
     ec2:	cc 30       	cpi	r28, 0x0C	; 12
     ec4:	a9 f1       	breq	.+106    	; 0xf30 <ds18b20_setup+0x94>
     ec6:	2f c0       	rjmp	.+94     	; 0xf26 <ds18b20_setup+0x8a>
     ec8:	c0 e4       	ldi	r28, 0x40	; 64
     eca:	01 c0       	rjmp	.+2      	; 0xece <ds18b20_setup+0x32>
     ecc:	c0 e0       	ldi	r28, 0x00	; 0
     ece:	8e e4       	ldi	r24, 0x4E	; 78
     ed0:	0e 94 06 03 	call	0x60c	; 0x60c <onewire_write>
     ed4:	80 e0       	ldi	r24, 0x00	; 0
     ed6:	0e 94 06 03 	call	0x60c	; 0x60c <onewire_write>
     eda:	80 e0       	ldi	r24, 0x00	; 0
     edc:	0e 94 06 03 	call	0x60c	; 0x60c <onewire_write>
     ee0:	8c 2f       	mov	r24, r28
     ee2:	0e 94 06 03 	call	0x60c	; 0x60c <onewire_write>
     ee6:	8f ec       	ldi	r24, 0xCF	; 207
     ee8:	97 e0       	ldi	r25, 0x07	; 7
     eea:	01 97       	sbiw	r24, 0x01	; 1
     eec:	f1 f7       	brne	.-4      	; 0xeea <ds18b20_setup+0x4e>
     eee:	00 c0       	rjmp	.+0      	; 0xef0 <ds18b20_setup+0x54>
     ef0:	00 00       	nop
     ef2:	0e 94 ea 02 	call	0x5d4	; 0x5d4 <onewire_reset>
     ef6:	0e 94 8a 03 	call	0x714	; 0x714 <onewire_skip_rom>
     efa:	8e eb       	ldi	r24, 0xBE	; 190
     efc:	0e 94 06 03 	call	0x60c	; 0x60c <onewire_write>
     f00:	89 e0       	ldi	r24, 0x09	; 9
     f02:	90 e0       	ldi	r25, 0x00	; 0
     f04:	0e 94 53 03 	call	0x6a6	; 0x6a6 <onewire_read_bytes>
     f08:	89 e0       	ldi	r24, 0x09	; 9
     f0a:	90 e0       	ldi	r25, 0x00	; 0
     f0c:	0e 94 6a 03 	call	0x6d4	; 0x6d4 <onewire_crc>
     f10:	81 11       	cpse	r24, r1
     f12:	0b c0       	rjmp	.+22     	; 0xf2a <ds18b20_setup+0x8e>
     f14:	81 e0       	ldi	r24, 0x01	; 1
     f16:	90 91 27 01 	lds	r25, 0x0127	; 0x800127 <DataBytes+0x4>
     f1a:	9c 17       	cp	r25, r28
     f1c:	39 f0       	breq	.+14     	; 0xf2c <ds18b20_setup+0x90>
     f1e:	80 e0       	ldi	r24, 0x00	; 0
     f20:	05 c0       	rjmp	.+10     	; 0xf2c <ds18b20_setup+0x90>
     f22:	80 e0       	ldi	r24, 0x00	; 0
     f24:	03 c0       	rjmp	.+6      	; 0xf2c <ds18b20_setup+0x90>
     f26:	80 e0       	ldi	r24, 0x00	; 0
     f28:	01 c0       	rjmp	.+2      	; 0xf2c <ds18b20_setup+0x90>
     f2a:	80 e0       	ldi	r24, 0x00	; 0
     f2c:	78 94       	sei
     f2e:	02 c0       	rjmp	.+4      	; 0xf34 <ds18b20_setup+0x98>
     f30:	c0 e2       	ldi	r28, 0x20	; 32
     f32:	cd cf       	rjmp	.-102    	; 0xece <ds18b20_setup+0x32>
     f34:	cf 91       	pop	r28
     f36:	08 95       	ret

00000f38 <ds18b20_start_conversion>:
     f38:	f8 94       	cli
     f3a:	0e 94 e8 02 	call	0x5d0	; 0x5d0 <onewire_init>
     f3e:	0e 94 ea 02 	call	0x5d4	; 0x5d4 <onewire_reset>
     f42:	88 23       	and	r24, r24
     f44:	39 f0       	breq	.+14     	; 0xf54 <ds18b20_start_conversion+0x1c>
     f46:	0e 94 8a 03 	call	0x714	; 0x714 <onewire_skip_rom>
     f4a:	84 e4       	ldi	r24, 0x44	; 68
     f4c:	0e 94 06 03 	call	0x60c	; 0x60c <onewire_write>
     f50:	81 e0       	ldi	r24, 0x01	; 1
     f52:	01 c0       	rjmp	.+2      	; 0xf56 <ds18b20_start_conversion+0x1e>
     f54:	80 e0       	ldi	r24, 0x00	; 0
     f56:	78 94       	sei
     f58:	08 95       	ret

00000f5a <ds18b20_read_temperature>:
     f5a:	cf 92       	push	r12
     f5c:	df 92       	push	r13
     f5e:	ef 92       	push	r14
     f60:	ff 92       	push	r15
     f62:	0f 93       	push	r16
     f64:	1f 93       	push	r17
     f66:	cf 93       	push	r28
     f68:	df 93       	push	r29
     f6a:	ec 01       	movw	r28, r24
     f6c:	f8 94       	cli
     f6e:	0e 94 e8 02 	call	0x5d0	; 0x5d0 <onewire_init>
     f72:	0e 94 ea 02 	call	0x5d4	; 0x5d4 <onewire_reset>
     f76:	88 23       	and	r24, r24
     f78:	09 f4       	brne	.+2      	; 0xf7c <ds18b20_read_temperature+0x22>
     f7a:	42 c0       	rjmp	.+132    	; 0x1000 <ds18b20_read_temperature+0xa6>
     f7c:	0e 94 8a 03 	call	0x714	; 0x714 <onewire_skip_rom>
     f80:	8e eb       	ldi	r24, 0xBE	; 190
     f82:	0e 94 06 03 	call	0x60c	; 0x60c <onewire_write>
     f86:	89 e0       	ldi	r24, 0x09	; 9
     f88:	90 e0       	ldi	r25, 0x00	; 0
     f8a:	0e 94 2c 03 	call	0x658	; 0x658 <onewire_read>
     f8e:	89 e0       	ldi	r24, 0x09	; 9
     f90:	90 e0       	ldi	r25, 0x00	; 0
     f92:	0e 94 6a 03 	call	0x6d4	; 0x6d4 <onewire_crc>
     f96:	81 11       	cpse	r24, r1
     f98:	33 c0       	rjmp	.+102    	; 0x1000 <ds18b20_read_temperature+0xa6>
     f9a:	03 e2       	ldi	r16, 0x23	; 35
     f9c:	11 e0       	ldi	r17, 0x01	; 1
     f9e:	f8 01       	movw	r30, r16
     fa0:	81 81       	ldd	r24, Z+1	; 0x01
     fa2:	90 81       	ld	r25, Z
     fa4:	92 95       	swap	r25
     fa6:	9f 70       	andi	r25, 0x0F	; 15
     fa8:	f0 e1       	ldi	r31, 0x10	; 16
     faa:	8f 9f       	mul	r24, r31
     fac:	b0 01       	movw	r22, r0
     fae:	11 24       	eor	r1, r1
     fb0:	69 2b       	or	r22, r25
     fb2:	80 7f       	andi	r24, 0xF0	; 240
     fb4:	78 2b       	or	r23, r24
     fb6:	07 2e       	mov	r0, r23
     fb8:	00 0c       	add	r0, r0
     fba:	88 0b       	sbc	r24, r24
     fbc:	99 0b       	sbc	r25, r25
     fbe:	0e 94 67 11 	call	0x22ce	; 0x22ce <__floatsisf>
     fc2:	6b 01       	movw	r12, r22
     fc4:	7c 01       	movw	r14, r24
     fc6:	68 83       	st	Y, r22
     fc8:	79 83       	std	Y+1, r23	; 0x01
     fca:	8a 83       	std	Y+2, r24	; 0x02
     fcc:	9b 83       	std	Y+3, r25	; 0x03
     fce:	f8 01       	movw	r30, r16
     fd0:	60 81       	ld	r22, Z
     fd2:	6f 70       	andi	r22, 0x0F	; 15
     fd4:	70 e0       	ldi	r23, 0x00	; 0
     fd6:	80 e0       	ldi	r24, 0x00	; 0
     fd8:	90 e0       	ldi	r25, 0x00	; 0
     fda:	0e 94 65 11 	call	0x22ca	; 0x22ca <__floatunsisf>
     fde:	20 e0       	ldi	r18, 0x00	; 0
     fe0:	30 e0       	ldi	r19, 0x00	; 0
     fe2:	40 e8       	ldi	r20, 0x80	; 128
     fe4:	5d e3       	ldi	r21, 0x3D	; 61
     fe6:	0e 94 1c 12 	call	0x2438	; 0x2438 <__mulsf3>
     fea:	a7 01       	movw	r20, r14
     fec:	96 01       	movw	r18, r12
     fee:	0e 94 4c 10 	call	0x2098	; 0x2098 <__addsf3>
     ff2:	68 83       	st	Y, r22
     ff4:	79 83       	std	Y+1, r23	; 0x01
     ff6:	8a 83       	std	Y+2, r24	; 0x02
     ff8:	9b 83       	std	Y+3, r25	; 0x03
     ffa:	78 94       	sei
     ffc:	81 e0       	ldi	r24, 0x01	; 1
     ffe:	02 c0       	rjmp	.+4      	; 0x1004 <ds18b20_read_temperature+0xaa>
    1000:	78 94       	sei
    1002:	80 e0       	ldi	r24, 0x00	; 0
    1004:	df 91       	pop	r29
    1006:	cf 91       	pop	r28
    1008:	1f 91       	pop	r17
    100a:	0f 91       	pop	r16
    100c:	ff 90       	pop	r15
    100e:	ef 90       	pop	r14
    1010:	df 90       	pop	r13
    1012:	cf 90       	pop	r12
    1014:	08 95       	ret

00001016 <ds18b20_get_temperature>:
    1016:	cf 93       	push	r28
    1018:	df 93       	push	r29
    101a:	ec 01       	movw	r28, r24
    101c:	0e 94 9c 07 	call	0xf38	; 0xf38 <ds18b20_start_conversion>
    1020:	88 23       	and	r24, r24
    1022:	69 f0       	breq	.+26     	; 0x103e <ds18b20_get_temperature+0x28>
    1024:	f8 94       	cli
    1026:	0e 94 2c 03 	call	0x658	; 0x658 <onewire_read>
    102a:	8f 3f       	cpi	r24, 0xFF	; 255
    102c:	e1 f7       	brne	.-8      	; 0x1026 <ds18b20_get_temperature+0x10>
    102e:	ce 01       	movw	r24, r28
    1030:	0e 94 ad 07 	call	0xf5a	; 0xf5a <ds18b20_read_temperature>
    1034:	88 23       	and	r24, r24
    1036:	19 f0       	breq	.+6      	; 0x103e <ds18b20_get_temperature+0x28>
    1038:	78 94       	sei
    103a:	81 e0       	ldi	r24, 0x01	; 1
    103c:	02 c0       	rjmp	.+4      	; 0x1042 <ds18b20_get_temperature+0x2c>
    103e:	78 94       	sei
    1040:	80 e0       	ldi	r24, 0x00	; 0
    1042:	df 91       	pop	r29
    1044:	cf 91       	pop	r28
    1046:	08 95       	ret

00001048 <sht3x_reset>:
    1048:	cf 93       	push	r28
    104a:	df 93       	push	r29
    104c:	00 d0       	rcall	.+0      	; 0x104e <sht3x_reset+0x6>
    104e:	1f 92       	push	r1
    1050:	cd b7       	in	r28, 0x3d	; 61
    1052:	de b7       	in	r29, 0x3e	; 62
    1054:	88 e8       	ldi	r24, 0x88	; 136
    1056:	89 83       	std	Y+1, r24	; 0x01
    1058:	80 e3       	ldi	r24, 0x30	; 48
    105a:	8a 83       	std	Y+2, r24	; 0x02
    105c:	82 ea       	ldi	r24, 0xA2	; 162
    105e:	8b 83       	std	Y+3, r24	; 0x03
    1060:	63 e0       	ldi	r22, 0x03	; 3
    1062:	ce 01       	movw	r24, r28
    1064:	01 96       	adiw	r24, 0x01	; 1
    1066:	0e 94 aa 03 	call	0x754	; 0x754 <i2c_start_write>
    106a:	8f e3       	ldi	r24, 0x3F	; 63
    106c:	9f e1       	ldi	r25, 0x1F	; 31
    106e:	01 97       	sbiw	r24, 0x01	; 1
    1070:	f1 f7       	brne	.-4      	; 0x106e <sht3x_reset+0x26>
    1072:	00 c0       	rjmp	.+0      	; 0x1074 <sht3x_reset+0x2c>
    1074:	00 00       	nop
    1076:	80 91 2d 01 	lds	r24, 0x012D	; 0x80012d <i2c_status_OK>
    107a:	0f 90       	pop	r0
    107c:	0f 90       	pop	r0
    107e:	0f 90       	pop	r0
    1080:	df 91       	pop	r29
    1082:	cf 91       	pop	r28
    1084:	08 95       	ret

00001086 <sht3x_get_command>:
    1086:	82 30       	cpi	r24, 0x02	; 2
    1088:	29 f0       	breq	.+10     	; 0x1094 <sht3x_get_command+0xe>
    108a:	83 30       	cpi	r24, 0x03	; 3
    108c:	31 f0       	breq	.+12     	; 0x109a <sht3x_get_command+0x14>
    108e:	81 30       	cpi	r24, 0x01	; 1
    1090:	39 f4       	brne	.+14     	; 0x10a0 <sht3x_get_command+0x1a>
    1092:	09 c0       	rjmp	.+18     	; 0x10a6 <sht3x_get_command+0x20>
    1094:	8b e0       	ldi	r24, 0x0B	; 11
    1096:	94 e2       	ldi	r25, 0x24	; 36
    1098:	08 95       	ret
    109a:	80 e0       	ldi	r24, 0x00	; 0
    109c:	94 e2       	ldi	r25, 0x24	; 36
    109e:	08 95       	ret
    10a0:	80 e0       	ldi	r24, 0x00	; 0
    10a2:	90 e0       	ldi	r25, 0x00	; 0
    10a4:	08 95       	ret
    10a6:	86 e1       	ldi	r24, 0x16	; 22
    10a8:	94 e2       	ldi	r25, 0x24	; 36
    10aa:	08 95       	ret

000010ac <sht3x_delay>:
    10ac:	82 30       	cpi	r24, 0x02	; 2
    10ae:	59 f0       	breq	.+22     	; 0x10c6 <sht3x_delay+0x1a>
    10b0:	83 30       	cpi	r24, 0x03	; 3
    10b2:	81 f0       	breq	.+32     	; 0x10d4 <sht3x_delay+0x28>
    10b4:	81 30       	cpi	r24, 0x01	; 1
    10b6:	a1 f4       	brne	.+40     	; 0x10e0 <sht3x_delay+0x34>
    10b8:	8f e3       	ldi	r24, 0x3F	; 63
    10ba:	9f e1       	ldi	r25, 0x1F	; 31
    10bc:	01 97       	sbiw	r24, 0x01	; 1
    10be:	f1 f7       	brne	.-4      	; 0x10bc <sht3x_delay+0x10>
    10c0:	00 c0       	rjmp	.+0      	; 0x10c2 <sht3x_delay+0x16>
    10c2:	00 00       	nop
    10c4:	08 95       	ret
    10c6:	8f ed       	ldi	r24, 0xDF	; 223
    10c8:	9e e2       	ldi	r25, 0x2E	; 46
    10ca:	01 97       	sbiw	r24, 0x01	; 1
    10cc:	f1 f7       	brne	.-4      	; 0x10ca <sht3x_delay+0x1e>
    10ce:	00 c0       	rjmp	.+0      	; 0x10d0 <sht3x_delay+0x24>
    10d0:	00 00       	nop
    10d2:	08 95       	ret
    10d4:	8f e5       	ldi	r24, 0x5F	; 95
    10d6:	9d e6       	ldi	r25, 0x6D	; 109
    10d8:	01 97       	sbiw	r24, 0x01	; 1
    10da:	f1 f7       	brne	.-4      	; 0x10d8 <sht3x_delay+0x2c>
    10dc:	00 c0       	rjmp	.+0      	; 0x10de <sht3x_delay+0x32>
    10de:	00 00       	nop
    10e0:	08 95       	ret

000010e2 <sht3x_check_crc>:
    10e2:	8f 92       	push	r8
    10e4:	9f 92       	push	r9
    10e6:	af 92       	push	r10
    10e8:	bf 92       	push	r11
    10ea:	cf 92       	push	r12
    10ec:	df 92       	push	r13
    10ee:	ef 92       	push	r14
    10f0:	ff 92       	push	r15
    10f2:	0f 93       	push	r16
    10f4:	1f 93       	push	r17
    10f6:	cf 93       	push	r28
    10f8:	df 93       	push	r29
    10fa:	fc 01       	movw	r30, r24
    10fc:	20 81       	ld	r18, Z
    10fe:	20 95       	com	r18
    1100:	91 81       	ldd	r25, Z+1	; 0x01
    1102:	89 2f       	mov	r24, r25
    1104:	90 e0       	ldi	r25, 0x00	; 0
    1106:	98 2f       	mov	r25, r24
    1108:	88 27       	eor	r24, r24
    110a:	09 2e       	mov	r0, r25
    110c:	00 0c       	add	r0, r0
    110e:	aa 0b       	sbc	r26, r26
    1110:	bb 0b       	sbc	r27, r27
    1112:	a2 2b       	or	r26, r18
    1114:	22 81       	ldd	r18, Z+2	; 0x02
    1116:	82 2b       	or	r24, r18
    1118:	40 e1       	ldi	r20, 0x10	; 16
    111a:	e0 e1       	ldi	r30, 0x10	; 16
    111c:	f0 e0       	ldi	r31, 0x00	; 0
    111e:	6f ef       	ldi	r22, 0xFF	; 255
    1120:	7f ef       	ldi	r23, 0xFF	; 255
    1122:	41 50       	subi	r20, 0x01	; 1
    1124:	04 2f       	mov	r16, r20
    1126:	10 e0       	ldi	r17, 0x00	; 0
    1128:	6c 01       	movw	r12, r24
    112a:	7d 01       	movw	r14, r26
    112c:	04 2e       	mov	r0, r20
    112e:	04 c0       	rjmp	.+8      	; 0x1138 <sht3x_check_crc+0x56>
    1130:	f6 94       	lsr	r15
    1132:	e7 94       	ror	r14
    1134:	d7 94       	ror	r13
    1136:	c7 94       	ror	r12
    1138:	0a 94       	dec	r0
    113a:	d2 f7       	brpl	.-12     	; 0x1130 <sht3x_check_crc+0x4e>
    113c:	96 01       	movw	r18, r12
    113e:	ef 01       	movw	r28, r30
    1140:	c0 1b       	sub	r28, r16
    1142:	d1 0b       	sbc	r29, r17
    1144:	5b 01       	movw	r10, r22
    1146:	02 c0       	rjmp	.+4      	; 0x114c <sht3x_check_crc+0x6a>
    1148:	b6 94       	lsr	r11
    114a:	a7 94       	ror	r10
    114c:	ca 95       	dec	r28
    114e:	e2 f7       	brpl	.-8      	; 0x1148 <sht3x_check_crc+0x66>
    1150:	45 01       	movw	r8, r10
    1152:	a1 2c       	mov	r10, r1
    1154:	b1 2c       	mov	r11, r1
    1156:	88 22       	and	r8, r24
    1158:	99 22       	and	r9, r25
    115a:	aa 22       	and	r10, r26
    115c:	bb 22       	and	r11, r27
    115e:	d6 01       	movw	r26, r12
    1160:	aa 27       	eor	r26, r26
    1162:	b1 70       	andi	r27, 0x01	; 1
    1164:	ab 2b       	or	r26, r27
    1166:	31 f0       	breq	.+12     	; 0x1174 <sht3x_check_crc+0x92>
    1168:	81 e3       	ldi	r24, 0x31	; 49
    116a:	c8 26       	eor	r12, r24
    116c:	81 e0       	ldi	r24, 0x01	; 1
    116e:	d8 26       	eor	r13, r24
    1170:	96 01       	movw	r18, r12
    1172:	31 70       	andi	r19, 0x01	; 1
    1174:	02 c0       	rjmp	.+4      	; 0x117a <sht3x_check_crc+0x98>
    1176:	22 0f       	add	r18, r18
    1178:	33 1f       	adc	r19, r19
    117a:	0a 95       	dec	r16
    117c:	e2 f7       	brpl	.-8      	; 0x1176 <sht3x_check_crc+0x94>
    117e:	c9 01       	movw	r24, r18
    1180:	a0 e0       	ldi	r26, 0x00	; 0
    1182:	b0 e0       	ldi	r27, 0x00	; 0
    1184:	88 29       	or	r24, r8
    1186:	99 29       	or	r25, r9
    1188:	aa 29       	or	r26, r10
    118a:	bb 29       	or	r27, r11
    118c:	41 11       	cpse	r20, r1
    118e:	c9 cf       	rjmp	.-110    	; 0x1122 <sht3x_check_crc+0x40>
    1190:	21 e0       	ldi	r18, 0x01	; 1
    1192:	89 2b       	or	r24, r25
    1194:	8a 2b       	or	r24, r26
    1196:	8b 2b       	or	r24, r27
    1198:	09 f4       	brne	.+2      	; 0x119c <sht3x_check_crc+0xba>
    119a:	20 e0       	ldi	r18, 0x00	; 0
    119c:	82 2f       	mov	r24, r18
    119e:	df 91       	pop	r29
    11a0:	cf 91       	pop	r28
    11a2:	1f 91       	pop	r17
    11a4:	0f 91       	pop	r16
    11a6:	ff 90       	pop	r15
    11a8:	ef 90       	pop	r14
    11aa:	df 90       	pop	r13
    11ac:	cf 90       	pop	r12
    11ae:	bf 90       	pop	r11
    11b0:	af 90       	pop	r10
    11b2:	9f 90       	pop	r9
    11b4:	8f 90       	pop	r8
    11b6:	08 95       	ret

000011b8 <sht3x_decode_data>:
    11b8:	cf 92       	push	r12
    11ba:	df 92       	push	r13
    11bc:	ef 92       	push	r14
    11be:	ff 92       	push	r15
    11c0:	1f 93       	push	r17
    11c2:	cf 93       	push	r28
    11c4:	df 93       	push	r29
    11c6:	ec 01       	movw	r28, r24
    11c8:	6a 01       	movw	r12, r20
    11ca:	79 01       	movw	r14, r18
    11cc:	66 23       	and	r22, r22
    11ce:	31 f0       	breq	.+12     	; 0x11dc <sht3x_decode_data+0x24>
    11d0:	0e 94 71 08 	call	0x10e2	; 0x10e2 <sht3x_check_crc>
    11d4:	18 2f       	mov	r17, r24
    11d6:	81 11       	cpse	r24, r1
    11d8:	0b c0       	rjmp	.+22     	; 0x11f0 <sht3x_decode_data+0x38>
    11da:	68 c0       	rjmp	.+208    	; 0x12ac <sht3x_decode_data+0xf4>
    11dc:	0e 94 71 08 	call	0x10e2	; 0x10e2 <sht3x_check_crc>
    11e0:	18 2f       	mov	r17, r24
    11e2:	ce 01       	movw	r24, r28
    11e4:	03 96       	adiw	r24, 0x03	; 3
    11e6:	0e 94 71 08 	call	0x10e2	; 0x10e2 <sht3x_check_crc>
    11ea:	18 2b       	or	r17, r24
    11ec:	19 f5       	brne	.+70     	; 0x1234 <sht3x_decode_data+0x7c>
    11ee:	5e c0       	rjmp	.+188    	; 0x12ac <sht3x_decode_data+0xf4>
    11f0:	68 81       	ld	r22, Y
    11f2:	70 e0       	ldi	r23, 0x00	; 0
    11f4:	76 2f       	mov	r23, r22
    11f6:	66 27       	eor	r22, r22
    11f8:	89 81       	ldd	r24, Y+1	; 0x01
    11fa:	68 2b       	or	r22, r24
    11fc:	80 e0       	ldi	r24, 0x00	; 0
    11fe:	90 e0       	ldi	r25, 0x00	; 0
    1200:	0e 94 65 11 	call	0x22ca	; 0x22ca <__floatunsisf>
    1204:	20 e0       	ldi	r18, 0x00	; 0
    1206:	3f ef       	ldi	r19, 0xFF	; 255
    1208:	4f e7       	ldi	r20, 0x7F	; 127
    120a:	57 e4       	ldi	r21, 0x47	; 71
    120c:	0e 94 bd 10 	call	0x217a	; 0x217a <__divsf3>
    1210:	20 e0       	ldi	r18, 0x00	; 0
    1212:	30 e0       	ldi	r19, 0x00	; 0
    1214:	4f e2       	ldi	r20, 0x2F	; 47
    1216:	53 e4       	ldi	r21, 0x43	; 67
    1218:	0e 94 1c 12 	call	0x2438	; 0x2438 <__mulsf3>
    121c:	20 e0       	ldi	r18, 0x00	; 0
    121e:	30 e0       	ldi	r19, 0x00	; 0
    1220:	44 e3       	ldi	r20, 0x34	; 52
    1222:	52 e4       	ldi	r21, 0x42	; 66
    1224:	0e 94 4b 10 	call	0x2096	; 0x2096 <__subsf3>
    1228:	f6 01       	movw	r30, r12
    122a:	60 83       	st	Z, r22
    122c:	71 83       	std	Z+1, r23	; 0x01
    122e:	82 83       	std	Z+2, r24	; 0x02
    1230:	93 83       	std	Z+3, r25	; 0x03
    1232:	3c c0       	rjmp	.+120    	; 0x12ac <sht3x_decode_data+0xf4>
    1234:	68 81       	ld	r22, Y
    1236:	70 e0       	ldi	r23, 0x00	; 0
    1238:	76 2f       	mov	r23, r22
    123a:	66 27       	eor	r22, r22
    123c:	89 81       	ldd	r24, Y+1	; 0x01
    123e:	68 2b       	or	r22, r24
    1240:	80 e0       	ldi	r24, 0x00	; 0
    1242:	90 e0       	ldi	r25, 0x00	; 0
    1244:	0e 94 65 11 	call	0x22ca	; 0x22ca <__floatunsisf>
    1248:	20 e0       	ldi	r18, 0x00	; 0
    124a:	3f ef       	ldi	r19, 0xFF	; 255
    124c:	4f e7       	ldi	r20, 0x7F	; 127
    124e:	57 e4       	ldi	r21, 0x47	; 71
    1250:	0e 94 bd 10 	call	0x217a	; 0x217a <__divsf3>
    1254:	20 e0       	ldi	r18, 0x00	; 0
    1256:	30 e0       	ldi	r19, 0x00	; 0
    1258:	4f e2       	ldi	r20, 0x2F	; 47
    125a:	53 e4       	ldi	r21, 0x43	; 67
    125c:	0e 94 1c 12 	call	0x2438	; 0x2438 <__mulsf3>
    1260:	20 e0       	ldi	r18, 0x00	; 0
    1262:	30 e0       	ldi	r19, 0x00	; 0
    1264:	44 e3       	ldi	r20, 0x34	; 52
    1266:	52 e4       	ldi	r21, 0x42	; 66
    1268:	0e 94 4b 10 	call	0x2096	; 0x2096 <__subsf3>
    126c:	f6 01       	movw	r30, r12
    126e:	60 83       	st	Z, r22
    1270:	71 83       	std	Z+1, r23	; 0x01
    1272:	82 83       	std	Z+2, r24	; 0x02
    1274:	93 83       	std	Z+3, r25	; 0x03
    1276:	6b 81       	ldd	r22, Y+3	; 0x03
    1278:	70 e0       	ldi	r23, 0x00	; 0
    127a:	76 2f       	mov	r23, r22
    127c:	66 27       	eor	r22, r22
    127e:	8c 81       	ldd	r24, Y+4	; 0x04
    1280:	68 2b       	or	r22, r24
    1282:	80 e0       	ldi	r24, 0x00	; 0
    1284:	90 e0       	ldi	r25, 0x00	; 0
    1286:	0e 94 65 11 	call	0x22ca	; 0x22ca <__floatunsisf>
    128a:	20 e0       	ldi	r18, 0x00	; 0
    128c:	3f ef       	ldi	r19, 0xFF	; 255
    128e:	4f e7       	ldi	r20, 0x7F	; 127
    1290:	57 e4       	ldi	r21, 0x47	; 71
    1292:	0e 94 bd 10 	call	0x217a	; 0x217a <__divsf3>
    1296:	20 e0       	ldi	r18, 0x00	; 0
    1298:	30 e0       	ldi	r19, 0x00	; 0
    129a:	48 ec       	ldi	r20, 0xC8	; 200
    129c:	52 e4       	ldi	r21, 0x42	; 66
    129e:	0e 94 1c 12 	call	0x2438	; 0x2438 <__mulsf3>
    12a2:	f7 01       	movw	r30, r14
    12a4:	60 83       	st	Z, r22
    12a6:	71 83       	std	Z+1, r23	; 0x01
    12a8:	82 83       	std	Z+2, r24	; 0x02
    12aa:	93 83       	std	Z+3, r25	; 0x03
    12ac:	81 2f       	mov	r24, r17
    12ae:	df 91       	pop	r29
    12b0:	cf 91       	pop	r28
    12b2:	1f 91       	pop	r17
    12b4:	ff 90       	pop	r15
    12b6:	ef 90       	pop	r14
    12b8:	df 90       	pop	r13
    12ba:	cf 90       	pop	r12
    12bc:	08 95       	ret

000012be <sht3x_measurement>:
    12be:	af 92       	push	r10
    12c0:	bf 92       	push	r11
    12c2:	cf 92       	push	r12
    12c4:	df 92       	push	r13
    12c6:	ff 92       	push	r15
    12c8:	0f 93       	push	r16
    12ca:	1f 93       	push	r17
    12cc:	cf 93       	push	r28
    12ce:	df 93       	push	r29
    12d0:	cd b7       	in	r28, 0x3d	; 61
    12d2:	de b7       	in	r29, 0x3e	; 62
    12d4:	27 97       	sbiw	r28, 0x07	; 7
    12d6:	0f b6       	in	r0, 0x3f	; 63
    12d8:	f8 94       	cli
    12da:	de bf       	out	0x3e, r29	; 62
    12dc:	0f be       	out	0x3f, r0	; 63
    12de:	cd bf       	out	0x3d, r28	; 61
    12e0:	18 2f       	mov	r17, r24
    12e2:	6b 01       	movw	r12, r22
    12e4:	5a 01       	movw	r10, r20
    12e6:	02 2f       	mov	r16, r18
    12e8:	0e 94 43 08 	call	0x1086	; 0x1086 <sht3x_get_command>
    12ec:	01 11       	cpse	r16, r1
    12ee:	05 c0       	rjmp	.+10     	; 0x12fa <sht3x_measurement+0x3c>
    12f0:	0f 2e       	mov	r0, r31
    12f2:	f7 e0       	ldi	r31, 0x07	; 7
    12f4:	ff 2e       	mov	r15, r31
    12f6:	f0 2d       	mov	r31, r0
    12f8:	03 c0       	rjmp	.+6      	; 0x1300 <sht3x_measurement+0x42>
    12fa:	68 94       	set
    12fc:	ff 24       	eor	r15, r15
    12fe:	f2 f8       	bld	r15, 2
    1300:	00 97       	sbiw	r24, 0x00	; 0
    1302:	d1 f1       	breq	.+116    	; 0x1378 <sht3x_measurement+0xba>
    1304:	fe 01       	movw	r30, r28
    1306:	31 96       	adiw	r30, 0x01	; 1
    1308:	27 e0       	ldi	r18, 0x07	; 7
    130a:	df 01       	movw	r26, r30
    130c:	1d 92       	st	X+, r1
    130e:	2a 95       	dec	r18
    1310:	e9 f7       	brne	.-6      	; 0x130c <sht3x_measurement+0x4e>
    1312:	28 e8       	ldi	r18, 0x88	; 136
    1314:	29 83       	std	Y+1, r18	; 0x01
    1316:	9a 83       	std	Y+2, r25	; 0x02
    1318:	8b 83       	std	Y+3, r24	; 0x03
    131a:	63 e0       	ldi	r22, 0x03	; 3
    131c:	cf 01       	movw	r24, r30
    131e:	0e 94 aa 03 	call	0x754	; 0x754 <i2c_start_write>
    1322:	0e 94 a2 03 	call	0x744	; 0x744 <i2c_get_status>
    1326:	88 23       	and	r24, r24
    1328:	19 f1       	breq	.+70     	; 0x1370 <sht3x_measurement+0xb2>
    132a:	81 2f       	mov	r24, r17
    132c:	0e 94 56 08 	call	0x10ac	; 0x10ac <sht3x_delay>
    1330:	89 e8       	ldi	r24, 0x89	; 137
    1332:	89 83       	std	Y+1, r24	; 0x01
    1334:	6f 2d       	mov	r22, r15
    1336:	ce 01       	movw	r24, r28
    1338:	01 96       	adiw	r24, 0x01	; 1
    133a:	0e 94 aa 03 	call	0x754	; 0x754 <i2c_start_write>
    133e:	8f ec       	ldi	r24, 0xCF	; 207
    1340:	97 e0       	ldi	r25, 0x07	; 7
    1342:	01 97       	sbiw	r24, 0x01	; 1
    1344:	f1 f7       	brne	.-4      	; 0x1342 <sht3x_measurement+0x84>
    1346:	00 c0       	rjmp	.+0      	; 0x1348 <sht3x_measurement+0x8a>
    1348:	00 00       	nop
    134a:	6f 2d       	mov	r22, r15
    134c:	ce 01       	movw	r24, r28
    134e:	01 96       	adiw	r24, 0x01	; 1
    1350:	0e 94 e3 03 	call	0x7c6	; 0x7c6 <i2c_read_buffer>
    1354:	88 23       	and	r24, r24
    1356:	71 f0       	breq	.+28     	; 0x1374 <sht3x_measurement+0xb6>
    1358:	95 01       	movw	r18, r10
    135a:	a6 01       	movw	r20, r12
    135c:	60 2f       	mov	r22, r16
    135e:	ce 01       	movw	r24, r28
    1360:	02 96       	adiw	r24, 0x02	; 2
    1362:	0e 94 dc 08 	call	0x11b8	; 0x11b8 <sht3x_decode_data>
    1366:	91 e0       	ldi	r25, 0x01	; 1
    1368:	81 11       	cpse	r24, r1
    136a:	07 c0       	rjmp	.+14     	; 0x137a <sht3x_measurement+0xbc>
    136c:	90 e0       	ldi	r25, 0x00	; 0
    136e:	05 c0       	rjmp	.+10     	; 0x137a <sht3x_measurement+0xbc>
    1370:	90 e0       	ldi	r25, 0x00	; 0
    1372:	03 c0       	rjmp	.+6      	; 0x137a <sht3x_measurement+0xbc>
    1374:	90 e0       	ldi	r25, 0x00	; 0
    1376:	01 c0       	rjmp	.+2      	; 0x137a <sht3x_measurement+0xbc>
    1378:	90 e0       	ldi	r25, 0x00	; 0
    137a:	89 2f       	mov	r24, r25
    137c:	27 96       	adiw	r28, 0x07	; 7
    137e:	0f b6       	in	r0, 0x3f	; 63
    1380:	f8 94       	cli
    1382:	de bf       	out	0x3e, r29	; 62
    1384:	0f be       	out	0x3f, r0	; 63
    1386:	cd bf       	out	0x3d, r28	; 61
    1388:	df 91       	pop	r29
    138a:	cf 91       	pop	r28
    138c:	1f 91       	pop	r17
    138e:	0f 91       	pop	r16
    1390:	ff 90       	pop	r15
    1392:	df 90       	pop	r13
    1394:	cf 90       	pop	r12
    1396:	bf 90       	pop	r11
    1398:	af 90       	pop	r10
    139a:	08 95       	ret

0000139c <sht3x_get_measurement>:
    139c:	20 e0       	ldi	r18, 0x00	; 0
    139e:	0e 94 5f 09 	call	0x12be	; 0x12be <sht3x_measurement>
    13a2:	08 95       	ret

000013a4 <software_uart_init>:
    13a4:	54 9a       	sbi	0x0a, 4	; 10
    13a6:	5c 9a       	sbi	0x0b, 4	; 11
    13a8:	55 98       	cbi	0x0a, 5	; 10
    13aa:	5d 9a       	sbi	0x0b, 5	; 11
    13ac:	08 95       	ret

000013ae <software_uart_end>:
    13ae:	54 98       	cbi	0x0a, 4	; 10
    13b0:	5c 98       	cbi	0x0b, 4	; 11
    13b2:	5d 98       	cbi	0x0b, 5	; 11
    13b4:	08 95       	ret

000013b6 <software_uart_write_bytes>:
    13b6:	cf 93       	push	r28
    13b8:	df 93       	push	r29
    13ba:	9c 01       	movw	r18, r24
    13bc:	9b b1       	in	r25, 0x0b	; 11
    13be:	9f 7e       	andi	r25, 0xEF	; 239
    13c0:	ab b1       	in	r26, 0x0b	; 11
    13c2:	a0 61       	ori	r26, 0x10	; 16
    13c4:	66 23       	and	r22, r22
    13c6:	c1 f1       	breq	.+112    	; 0x1438 <software_uart_write_bytes+0x82>
    13c8:	f9 01       	movw	r30, r18
    13ca:	61 50       	subi	r22, 0x01	; 1
    13cc:	70 e0       	ldi	r23, 0x00	; 0
    13ce:	6f 5f       	subi	r22, 0xFF	; 255
    13d0:	7f 4f       	sbci	r23, 0xFF	; 255
    13d2:	62 0f       	add	r22, r18
    13d4:	73 1f       	adc	r23, r19
    13d6:	9b b9       	out	0x0b, r25	; 11
    13d8:	cf ec       	ldi	r28, 0xCF	; 207
    13da:	d0 e0       	ldi	r29, 0x00	; 0
    13dc:	21 97       	sbiw	r28, 0x01	; 1
    13de:	f1 f7       	brne	.-4      	; 0x13dc <software_uart_write_bytes+0x26>
    13e0:	00 c0       	rjmp	.+0      	; 0x13e2 <software_uart_write_bytes+0x2c>
    13e2:	00 00       	nop
    13e4:	40 e0       	ldi	r20, 0x00	; 0
    13e6:	50 e0       	ldi	r21, 0x00	; 0
    13e8:	20 81       	ld	r18, Z
    13ea:	30 e0       	ldi	r19, 0x00	; 0
    13ec:	04 2e       	mov	r0, r20
    13ee:	02 c0       	rjmp	.+4      	; 0x13f4 <software_uart_write_bytes+0x3e>
    13f0:	35 95       	asr	r19
    13f2:	27 95       	ror	r18
    13f4:	0a 94       	dec	r0
    13f6:	e2 f7       	brpl	.-8      	; 0x13f0 <software_uart_write_bytes+0x3a>
    13f8:	21 70       	andi	r18, 0x01	; 1
    13fa:	33 27       	eor	r19, r19
    13fc:	22 95       	swap	r18
    13fe:	32 95       	swap	r19
    1400:	30 7f       	andi	r19, 0xF0	; 240
    1402:	32 27       	eor	r19, r18
    1404:	20 7f       	andi	r18, 0xF0	; 240
    1406:	32 27       	eor	r19, r18
    1408:	29 2b       	or	r18, r25
    140a:	2b b9       	out	0x0b, r18	; 11
    140c:	cf ec       	ldi	r28, 0xCF	; 207
    140e:	d0 e0       	ldi	r29, 0x00	; 0
    1410:	21 97       	sbiw	r28, 0x01	; 1
    1412:	f1 f7       	brne	.-4      	; 0x1410 <software_uart_write_bytes+0x5a>
    1414:	00 c0       	rjmp	.+0      	; 0x1416 <software_uart_write_bytes+0x60>
    1416:	00 00       	nop
    1418:	4f 5f       	subi	r20, 0xFF	; 255
    141a:	5f 4f       	sbci	r21, 0xFF	; 255
    141c:	48 30       	cpi	r20, 0x08	; 8
    141e:	51 05       	cpc	r21, r1
    1420:	19 f7       	brne	.-58     	; 0x13e8 <software_uart_write_bytes+0x32>
    1422:	ab b9       	out	0x0b, r26	; 11
    1424:	cf ec       	ldi	r28, 0xCF	; 207
    1426:	d0 e0       	ldi	r29, 0x00	; 0
    1428:	21 97       	sbiw	r28, 0x01	; 1
    142a:	f1 f7       	brne	.-4      	; 0x1428 <software_uart_write_bytes+0x72>
    142c:	00 c0       	rjmp	.+0      	; 0x142e <software_uart_write_bytes+0x78>
    142e:	00 00       	nop
    1430:	31 96       	adiw	r30, 0x01	; 1
    1432:	6e 17       	cp	r22, r30
    1434:	7f 07       	cpc	r23, r31
    1436:	79 f6       	brne	.-98     	; 0x13d6 <software_uart_write_bytes+0x20>
    1438:	df 91       	pop	r29
    143a:	cf 91       	pop	r28
    143c:	08 95       	ret

0000143e <software_uart_read_bytes>:
    143e:	4f 92       	push	r4
    1440:	5f 92       	push	r5
    1442:	7f 92       	push	r7
    1444:	8f 92       	push	r8
    1446:	9f 92       	push	r9
    1448:	af 92       	push	r10
    144a:	bf 92       	push	r11
    144c:	cf 92       	push	r12
    144e:	df 92       	push	r13
    1450:	ef 92       	push	r14
    1452:	ff 92       	push	r15
    1454:	0f 93       	push	r16
    1456:	1f 93       	push	r17
    1458:	cf 93       	push	r28
    145a:	df 93       	push	r29
    145c:	8c 01       	movw	r16, r24
    145e:	f6 2e       	mov	r15, r22
    1460:	9a 01       	movw	r18, r20
    1462:	a8 ee       	ldi	r26, 0xE8	; 232
    1464:	b3 e0       	ldi	r27, 0x03	; 3
    1466:	0e 94 04 13 	call	0x2608	; 0x2608 <__umulhisi3>
    146a:	21 e1       	ldi	r18, 0x11	; 17
    146c:	30 e0       	ldi	r19, 0x00	; 0
    146e:	40 e0       	ldi	r20, 0x00	; 0
    1470:	50 e0       	ldi	r21, 0x00	; 0
    1472:	0e 94 bd 12 	call	0x257a	; 0x257a <__udivmodsi4>
    1476:	49 01       	movw	r8, r18
    1478:	5a 01       	movw	r10, r20
    147a:	6f 2d       	mov	r22, r15
    147c:	70 e0       	ldi	r23, 0x00	; 0
    147e:	16 16       	cp	r1, r22
    1480:	17 06       	cpc	r1, r23
    1482:	0c f0       	brlt	.+2      	; 0x1486 <software_uart_read_bytes+0x48>
    1484:	4d c0       	rjmp	.+154    	; 0x1520 <software_uart_read_bytes+0xe2>
    1486:	41 2c       	mov	r4, r1
    1488:	51 2c       	mov	r5, r1
    148a:	c1 2c       	mov	r12, r1
    148c:	d1 2c       	mov	r13, r1
    148e:	76 01       	movw	r14, r12
    1490:	21 e0       	ldi	r18, 0x01	; 1
    1492:	71 2c       	mov	r7, r1
    1494:	4d 99       	sbic	0x09, 5	; 9
    1496:	2a c0       	rjmp	.+84     	; 0x14ec <software_uart_read_bytes+0xae>
    1498:	87 e3       	ldi	r24, 0x37	; 55
    149a:	91 e0       	ldi	r25, 0x01	; 1
    149c:	01 97       	sbiw	r24, 0x01	; 1
    149e:	f1 f7       	brne	.-4      	; 0x149c <software_uart_read_bytes+0x5e>
    14a0:	00 c0       	rjmp	.+0      	; 0x14a2 <software_uart_read_bytes+0x64>
    14a2:	00 00       	nop
    14a4:	f8 01       	movw	r30, r16
    14a6:	e4 0d       	add	r30, r4
    14a8:	f5 1d       	adc	r31, r5
    14aa:	10 82       	st	Z, r1
    14ac:	80 e0       	ldi	r24, 0x00	; 0
    14ae:	90 e0       	ldi	r25, 0x00	; 0
    14b0:	39 b1       	in	r19, 0x09	; 9
    14b2:	35 fb       	bst	r19, 5
    14b4:	33 27       	eor	r19, r19
    14b6:	30 f9       	bld	r19, 0
    14b8:	c3 2f       	mov	r28, r19
    14ba:	a0 e0       	ldi	r26, 0x00	; 0
    14bc:	da 2f       	mov	r29, r26
    14be:	ae 01       	movw	r20, r28
    14c0:	08 2e       	mov	r0, r24
    14c2:	02 c0       	rjmp	.+4      	; 0x14c8 <software_uart_read_bytes+0x8a>
    14c4:	44 0f       	add	r20, r20
    14c6:	55 1f       	adc	r21, r21
    14c8:	0a 94       	dec	r0
    14ca:	e2 f7       	brpl	.-8      	; 0x14c4 <software_uart_read_bytes+0x86>
    14cc:	30 81       	ld	r19, Z
    14ce:	43 2b       	or	r20, r19
    14d0:	40 83       	st	Z, r20
    14d2:	af ec       	ldi	r26, 0xCF	; 207
    14d4:	b0 e0       	ldi	r27, 0x00	; 0
    14d6:	11 97       	sbiw	r26, 0x01	; 1
    14d8:	f1 f7       	brne	.-4      	; 0x14d6 <software_uart_read_bytes+0x98>
    14da:	00 c0       	rjmp	.+0      	; 0x14dc <software_uart_read_bytes+0x9e>
    14dc:	00 00       	nop
    14de:	01 96       	adiw	r24, 0x01	; 1
    14e0:	88 30       	cpi	r24, 0x08	; 8
    14e2:	91 05       	cpc	r25, r1
    14e4:	29 f7       	brne	.-54     	; 0x14b0 <software_uart_read_bytes+0x72>
    14e6:	bf ef       	ldi	r27, 0xFF	; 255
    14e8:	4b 1a       	sub	r4, r27
    14ea:	5b 0a       	sbc	r5, r27
    14ec:	3f ef       	ldi	r19, 0xFF	; 255
    14ee:	c3 1a       	sub	r12, r19
    14f0:	d3 0a       	sbc	r13, r19
    14f2:	e3 0a       	sbc	r14, r19
    14f4:	f3 0a       	sbc	r15, r19
    14f6:	8d e2       	ldi	r24, 0x2D	; 45
    14f8:	8a 95       	dec	r24
    14fa:	f1 f7       	brne	.-4      	; 0x14f8 <software_uart_read_bytes+0xba>
    14fc:	00 00       	nop
    14fe:	82 2f       	mov	r24, r18
    1500:	8c 14       	cp	r8, r12
    1502:	9d 04       	cpc	r9, r13
    1504:	ae 04       	cpc	r10, r14
    1506:	bf 04       	cpc	r11, r15
    1508:	08 f4       	brcc	.+2      	; 0x150c <software_uart_read_bytes+0xce>
    150a:	87 2d       	mov	r24, r7
    150c:	88 23       	and	r24, r24
    150e:	51 f0       	breq	.+20     	; 0x1524 <software_uart_read_bytes+0xe6>
    1510:	82 2f       	mov	r24, r18
    1512:	46 16       	cp	r4, r22
    1514:	57 06       	cpc	r5, r23
    1516:	0c f0       	brlt	.+2      	; 0x151a <software_uart_read_bytes+0xdc>
    1518:	87 2d       	mov	r24, r7
    151a:	81 11       	cpse	r24, r1
    151c:	bb cf       	rjmp	.-138    	; 0x1494 <software_uart_read_bytes+0x56>
    151e:	02 c0       	rjmp	.+4      	; 0x1524 <software_uart_read_bytes+0xe6>
    1520:	41 2c       	mov	r4, r1
    1522:	51 2c       	mov	r5, r1
    1524:	81 e0       	ldi	r24, 0x01	; 1
    1526:	64 15       	cp	r22, r4
    1528:	75 05       	cpc	r23, r5
    152a:	09 f0       	breq	.+2      	; 0x152e <software_uart_read_bytes+0xf0>
    152c:	80 e0       	ldi	r24, 0x00	; 0
    152e:	df 91       	pop	r29
    1530:	cf 91       	pop	r28
    1532:	1f 91       	pop	r17
    1534:	0f 91       	pop	r16
    1536:	ff 90       	pop	r15
    1538:	ef 90       	pop	r14
    153a:	df 90       	pop	r13
    153c:	cf 90       	pop	r12
    153e:	bf 90       	pop	r11
    1540:	af 90       	pop	r10
    1542:	9f 90       	pop	r9
    1544:	8f 90       	pop	r8
    1546:	7f 90       	pop	r7
    1548:	5f 90       	pop	r5
    154a:	4f 90       	pop	r4
    154c:	08 95       	ret

0000154e <sfm10r1_reset>:
    154e:	57 9a       	sbi	0x0a, 7	; 10
    1550:	5f 9a       	sbi	0x0b, 7	; 11
    1552:	8f ea       	ldi	r24, 0xAF	; 175
    1554:	94 e0       	ldi	r25, 0x04	; 4
    1556:	01 97       	sbiw	r24, 0x01	; 1
    1558:	f1 f7       	brne	.-4      	; 0x1556 <sfm10r1_reset+0x8>
    155a:	00 c0       	rjmp	.+0      	; 0x155c <sfm10r1_reset+0xe>
    155c:	00 00       	nop
    155e:	5f 98       	cbi	0x0b, 7	; 11
    1560:	92 e0       	ldi	r25, 0x02	; 2
    1562:	9a 95       	dec	r25
    1564:	f1 f7       	brne	.-4      	; 0x1562 <sfm10r1_reset+0x14>
    1566:	00 c0       	rjmp	.+0      	; 0x1568 <sfm10r1_reset+0x1a>
    1568:	5f 9a       	sbi	0x0b, 7	; 11
    156a:	57 98       	cbi	0x0a, 7	; 10
    156c:	08 95       	ret

0000156e <sfm10r1_init>:
    156e:	0e 94 d2 09 	call	0x13a4	; 0x13a4 <software_uart_init>
    1572:	0e 94 a7 0a 	call	0x154e	; 0x154e <sfm10r1_reset>
    1576:	08 95       	ret

00001578 <sfm10r1_end>:
    1578:	0e 94 a7 0a 	call	0x154e	; 0x154e <sfm10r1_reset>
    157c:	0e 94 d7 09 	call	0x13ae	; 0x13ae <software_uart_end>
    1580:	08 95       	ret

00001582 <sfm10r1_ping>:
    1582:	cf 93       	push	r28
    1584:	df 93       	push	r29
    1586:	00 d0       	rcall	.+0      	; 0x1588 <sfm10r1_ping+0x6>
    1588:	00 d0       	rcall	.+0      	; 0x158a <sfm10r1_ping+0x8>
    158a:	cd b7       	in	r28, 0x3d	; 61
    158c:	de b7       	in	r29, 0x3e	; 62
    158e:	19 82       	std	Y+1, r1	; 0x01
    1590:	1a 82       	std	Y+2, r1	; 0x02
    1592:	1b 82       	std	Y+3, r1	; 0x03
    1594:	1c 82       	std	Y+4, r1	; 0x04
    1596:	81 e4       	ldi	r24, 0x41	; 65
    1598:	89 83       	std	Y+1, r24	; 0x01
    159a:	84 e5       	ldi	r24, 0x54	; 84
    159c:	8a 83       	std	Y+2, r24	; 0x02
    159e:	8d e0       	ldi	r24, 0x0D	; 13
    15a0:	8b 83       	std	Y+3, r24	; 0x03
    15a2:	63 e0       	ldi	r22, 0x03	; 3
    15a4:	ce 01       	movw	r24, r28
    15a6:	01 96       	adiw	r24, 0x01	; 1
    15a8:	0e 94 db 09 	call	0x13b6	; 0x13b6 <software_uart_write_bytes>
    15ac:	44 ef       	ldi	r20, 0xF4	; 244
    15ae:	51 e0       	ldi	r21, 0x01	; 1
    15b0:	64 e0       	ldi	r22, 0x04	; 4
    15b2:	ce 01       	movw	r24, r28
    15b4:	01 96       	adiw	r24, 0x01	; 1
    15b6:	0e 94 1f 0a 	call	0x143e	; 0x143e <software_uart_read_bytes>
    15ba:	88 23       	and	r24, r24
    15bc:	51 f0       	breq	.+20     	; 0x15d2 <sfm10r1_ping+0x50>
    15be:	89 81       	ldd	r24, Y+1	; 0x01
    15c0:	8f 34       	cpi	r24, 0x4F	; 79
    15c2:	31 f4       	brne	.+12     	; 0x15d0 <sfm10r1_ping+0x4e>
    15c4:	81 e0       	ldi	r24, 0x01	; 1
    15c6:	9a 81       	ldd	r25, Y+2	; 0x02
    15c8:	9b 34       	cpi	r25, 0x4B	; 75
    15ca:	19 f0       	breq	.+6      	; 0x15d2 <sfm10r1_ping+0x50>
    15cc:	80 e0       	ldi	r24, 0x00	; 0
    15ce:	01 c0       	rjmp	.+2      	; 0x15d2 <sfm10r1_ping+0x50>
    15d0:	80 e0       	ldi	r24, 0x00	; 0
    15d2:	0f 90       	pop	r0
    15d4:	0f 90       	pop	r0
    15d6:	0f 90       	pop	r0
    15d8:	0f 90       	pop	r0
    15da:	df 91       	pop	r29
    15dc:	cf 91       	pop	r28
    15de:	08 95       	ret

000015e0 <sfm10r1_send_data>:
    15e0:	cf 93       	push	r28
    15e2:	df 93       	push	r29
    15e4:	cd b7       	in	r28, 0x3d	; 61
    15e6:	de b7       	in	r29, 0x3e	; 62
    15e8:	a0 97       	sbiw	r28, 0x20	; 32
    15ea:	0f b6       	in	r0, 0x3f	; 63
    15ec:	f8 94       	cli
    15ee:	de bf       	out	0x3e, r29	; 62
    15f0:	0f be       	out	0x3f, r0	; 63
    15f2:	cd bf       	out	0x3d, r28	; 61
    15f4:	fe 01       	movw	r30, r28
    15f6:	31 96       	adiw	r30, 0x01	; 1
    15f8:	20 e2       	ldi	r18, 0x20	; 32
    15fa:	df 01       	movw	r26, r30
    15fc:	1d 92       	st	X+, r1
    15fe:	2a 95       	dec	r18
    1600:	e9 f7       	brne	.-6      	; 0x15fc <sfm10r1_send_data+0x1c>
    1602:	21 e4       	ldi	r18, 0x41	; 65
    1604:	29 83       	std	Y+1, r18	; 0x01
    1606:	24 e5       	ldi	r18, 0x54	; 84
    1608:	2a 83       	std	Y+2, r18	; 0x02
    160a:	24 e2       	ldi	r18, 0x24	; 36
    160c:	2b 83       	std	Y+3, r18	; 0x03
    160e:	23 e5       	ldi	r18, 0x53	; 83
    1610:	2c 83       	std	Y+4, r18	; 0x04
    1612:	26 e4       	ldi	r18, 0x46	; 70
    1614:	2d 83       	std	Y+5, r18	; 0x05
    1616:	2d e3       	ldi	r18, 0x3D	; 61
    1618:	2e 83       	std	Y+6, r18	; 0x06
    161a:	66 23       	and	r22, r22
    161c:	79 f0       	breq	.+30     	; 0x163c <sfm10r1_send_data+0x5c>
    161e:	a8 2f       	mov	r26, r24
    1620:	b9 2f       	mov	r27, r25
    1622:	36 96       	adiw	r30, 0x06	; 6
    1624:	8f ef       	ldi	r24, 0xFF	; 255
    1626:	86 0f       	add	r24, r22
    1628:	9e 01       	movw	r18, r28
    162a:	28 0f       	add	r18, r24
    162c:	31 1d       	adc	r19, r1
    162e:	28 5f       	subi	r18, 0xF8	; 248
    1630:	3f 4f       	sbci	r19, 0xFF	; 255
    1632:	8d 91       	ld	r24, X+
    1634:	81 93       	st	Z+, r24
    1636:	e2 17       	cp	r30, r18
    1638:	f3 07       	cpc	r31, r19
    163a:	d9 f7       	brne	.-10     	; 0x1632 <sfm10r1_send_data+0x52>
    163c:	fe 01       	movw	r30, r28
    163e:	e6 0f       	add	r30, r22
    1640:	f1 1d       	adc	r31, r1
    1642:	8d e0       	ldi	r24, 0x0D	; 13
    1644:	87 83       	std	Z+7, r24	; 0x07
    1646:	69 5f       	subi	r22, 0xF9	; 249
    1648:	ce 01       	movw	r24, r28
    164a:	01 96       	adiw	r24, 0x01	; 1
    164c:	0e 94 db 09 	call	0x13b6	; 0x13b6 <software_uart_write_bytes>
    1650:	48 e9       	ldi	r20, 0x98	; 152
    1652:	5a e3       	ldi	r21, 0x3A	; 58
    1654:	64 e0       	ldi	r22, 0x04	; 4
    1656:	ce 01       	movw	r24, r28
    1658:	01 96       	adiw	r24, 0x01	; 1
    165a:	0e 94 1f 0a 	call	0x143e	; 0x143e <software_uart_read_bytes>
    165e:	88 23       	and	r24, r24
    1660:	51 f0       	breq	.+20     	; 0x1676 <sfm10r1_send_data+0x96>
    1662:	89 81       	ldd	r24, Y+1	; 0x01
    1664:	8f 34       	cpi	r24, 0x4F	; 79
    1666:	31 f4       	brne	.+12     	; 0x1674 <sfm10r1_send_data+0x94>
    1668:	81 e0       	ldi	r24, 0x01	; 1
    166a:	9a 81       	ldd	r25, Y+2	; 0x02
    166c:	9b 34       	cpi	r25, 0x4B	; 75
    166e:	19 f0       	breq	.+6      	; 0x1676 <sfm10r1_send_data+0x96>
    1670:	80 e0       	ldi	r24, 0x00	; 0
    1672:	01 c0       	rjmp	.+2      	; 0x1676 <sfm10r1_send_data+0x96>
    1674:	80 e0       	ldi	r24, 0x00	; 0
    1676:	a0 96       	adiw	r28, 0x20	; 32
    1678:	0f b6       	in	r0, 0x3f	; 63
    167a:	f8 94       	cli
    167c:	de bf       	out	0x3e, r29	; 62
    167e:	0f be       	out	0x3f, r0	; 63
    1680:	cd bf       	out	0x3d, r28	; 61
    1682:	df 91       	pop	r29
    1684:	cf 91       	pop	r28
    1686:	08 95       	ret

00001688 <sfm10r1_get_temperature>:
    1688:	4f 92       	push	r4
    168a:	5f 92       	push	r5
    168c:	6f 92       	push	r6
    168e:	7f 92       	push	r7
    1690:	8f 92       	push	r8
    1692:	9f 92       	push	r9
    1694:	af 92       	push	r10
    1696:	bf 92       	push	r11
    1698:	cf 92       	push	r12
    169a:	df 92       	push	r13
    169c:	ef 92       	push	r14
    169e:	ff 92       	push	r15
    16a0:	0f 93       	push	r16
    16a2:	1f 93       	push	r17
    16a4:	cf 93       	push	r28
    16a6:	df 93       	push	r29
    16a8:	00 d0       	rcall	.+0      	; 0x16aa <sfm10r1_get_temperature+0x22>
    16aa:	00 d0       	rcall	.+0      	; 0x16ac <sfm10r1_get_temperature+0x24>
    16ac:	00 d0       	rcall	.+0      	; 0x16ae <sfm10r1_get_temperature+0x26>
    16ae:	cd b7       	in	r28, 0x3d	; 61
    16b0:	de b7       	in	r29, 0x3e	; 62
    16b2:	7c 01       	movw	r14, r24
    16b4:	86 e0       	ldi	r24, 0x06	; 6
    16b6:	e0 e0       	ldi	r30, 0x00	; 0
    16b8:	f1 e0       	ldi	r31, 0x01	; 1
    16ba:	de 01       	movw	r26, r28
    16bc:	11 96       	adiw	r26, 0x01	; 1
    16be:	01 90       	ld	r0, Z+
    16c0:	0d 92       	st	X+, r0
    16c2:	8a 95       	dec	r24
    16c4:	e1 f7       	brne	.-8      	; 0x16be <sfm10r1_get_temperature+0x36>
    16c6:	66 e0       	ldi	r22, 0x06	; 6
    16c8:	ce 01       	movw	r24, r28
    16ca:	01 96       	adiw	r24, 0x01	; 1
    16cc:	0e 94 db 09 	call	0x13b6	; 0x13b6 <software_uart_write_bytes>
    16d0:	44 ef       	ldi	r20, 0xF4	; 244
    16d2:	51 e0       	ldi	r21, 0x01	; 1
    16d4:	65 e0       	ldi	r22, 0x05	; 5
    16d6:	ce 01       	movw	r24, r28
    16d8:	01 96       	adiw	r24, 0x01	; 1
    16da:	0e 94 1f 0a 	call	0x143e	; 0x143e <software_uart_read_bytes>
    16de:	88 23       	and	r24, r24
    16e0:	09 f4       	brne	.+2      	; 0x16e4 <sfm10r1_get_temperature+0x5c>
    16e2:	a1 c0       	rjmp	.+322    	; 0x1826 <sfm10r1_get_temperature+0x19e>
    16e4:	f7 01       	movw	r30, r14
    16e6:	10 82       	st	Z, r1
    16e8:	11 82       	std	Z+1, r1	; 0x01
    16ea:	12 82       	std	Z+2, r1	; 0x02
    16ec:	13 82       	std	Z+3, r1	; 0x03
    16ee:	01 e0       	ldi	r16, 0x01	; 1
    16f0:	10 e0       	ldi	r17, 0x00	; 0
    16f2:	d1 2c       	mov	r13, r1
    16f4:	0f 2e       	mov	r0, r31
    16f6:	f9 e0       	ldi	r31, 0x09	; 9
    16f8:	4f 2e       	mov	r4, r31
    16fa:	f0 2d       	mov	r31, r0
    16fc:	68 94       	set
    16fe:	55 24       	eor	r5, r5
    1700:	53 f8       	bld	r5, 3
    1702:	0f 2e       	mov	r0, r31
    1704:	f7 e0       	ldi	r31, 0x07	; 7
    1706:	6f 2e       	mov	r6, r31
    1708:	f0 2d       	mov	r31, r0
    170a:	0f 2e       	mov	r0, r31
    170c:	f6 e0       	ldi	r31, 0x06	; 6
    170e:	7f 2e       	mov	r7, r31
    1710:	f0 2d       	mov	r31, r0
    1712:	0f 2e       	mov	r0, r31
    1714:	f5 e0       	ldi	r31, 0x05	; 5
    1716:	8f 2e       	mov	r8, r31
    1718:	f0 2d       	mov	r31, r0
    171a:	68 94       	set
    171c:	99 24       	eor	r9, r9
    171e:	92 f8       	bld	r9, 2
    1720:	0f 2e       	mov	r0, r31
    1722:	f3 e0       	ldi	r31, 0x03	; 3
    1724:	af 2e       	mov	r10, r31
    1726:	f0 2d       	mov	r31, r0
    1728:	68 94       	set
    172a:	bb 24       	eor	r11, r11
    172c:	b1 f8       	bld	r11, 1
    172e:	cc 24       	eor	r12, r12
    1730:	c3 94       	inc	r12
    1732:	02 c0       	rjmp	.+4      	; 0x1738 <sfm10r1_get_temperature+0xb0>
    1734:	1f 5f       	subi	r17, 0xFF	; 255
    1736:	0f 5f       	subi	r16, 0xFF	; 255
    1738:	e1 e0       	ldi	r30, 0x01	; 1
    173a:	f0 e0       	ldi	r31, 0x00	; 0
    173c:	ec 0f       	add	r30, r28
    173e:	fd 1f       	adc	r31, r29
    1740:	e1 0f       	add	r30, r17
    1742:	f1 1d       	adc	r31, r1
    1744:	e0 81       	ld	r30, Z
    1746:	8e 2f       	mov	r24, r30
    1748:	90 e0       	ldi	r25, 0x00	; 0
    174a:	fc 01       	movw	r30, r24
    174c:	f0 97       	sbiw	r30, 0x30	; 48
    174e:	ea 30       	cpi	r30, 0x0A	; 10
    1750:	f1 05       	cpc	r31, r1
    1752:	08 f0       	brcs	.+2      	; 0x1756 <sfm10r1_get_temperature+0xce>
    1754:	67 c0       	rjmp	.+206    	; 0x1824 <sfm10r1_get_temperature+0x19c>
    1756:	eb 57       	subi	r30, 0x7B	; 123
    1758:	ff 4f       	sbci	r31, 0xFF	; 255
    175a:	0c 94 fe 12 	jmp	0x25fc	; 0x25fc <__tablejump2__>
    175e:	6c 2d       	mov	r22, r12
    1760:	11 c0       	rjmp	.+34     	; 0x1784 <sfm10r1_get_temperature+0xfc>
    1762:	6b 2d       	mov	r22, r11
    1764:	0f c0       	rjmp	.+30     	; 0x1784 <sfm10r1_get_temperature+0xfc>
    1766:	6a 2d       	mov	r22, r10
    1768:	0d c0       	rjmp	.+26     	; 0x1784 <sfm10r1_get_temperature+0xfc>
    176a:	69 2d       	mov	r22, r9
    176c:	0b c0       	rjmp	.+22     	; 0x1784 <sfm10r1_get_temperature+0xfc>
    176e:	68 2d       	mov	r22, r8
    1770:	09 c0       	rjmp	.+18     	; 0x1784 <sfm10r1_get_temperature+0xfc>
    1772:	67 2d       	mov	r22, r7
    1774:	07 c0       	rjmp	.+14     	; 0x1784 <sfm10r1_get_temperature+0xfc>
    1776:	66 2d       	mov	r22, r6
    1778:	05 c0       	rjmp	.+10     	; 0x1784 <sfm10r1_get_temperature+0xfc>
    177a:	65 2d       	mov	r22, r5
    177c:	03 c0       	rjmp	.+6      	; 0x1784 <sfm10r1_get_temperature+0xfc>
    177e:	64 2d       	mov	r22, r4
    1780:	01 c0       	rjmp	.+2      	; 0x1784 <sfm10r1_get_temperature+0xfc>
    1782:	6d 2d       	mov	r22, r13
    1784:	11 11       	cpse	r17, r1
    1786:	1a c0       	rjmp	.+52     	; 0x17bc <sfm10r1_get_temperature+0x134>
    1788:	70 e0       	ldi	r23, 0x00	; 0
    178a:	80 e0       	ldi	r24, 0x00	; 0
    178c:	90 e0       	ldi	r25, 0x00	; 0
    178e:	0e 94 65 11 	call	0x22ca	; 0x22ca <__floatunsisf>
    1792:	20 e0       	ldi	r18, 0x00	; 0
    1794:	30 e0       	ldi	r19, 0x00	; 0
    1796:	40 e2       	ldi	r20, 0x20	; 32
    1798:	51 e4       	ldi	r21, 0x41	; 65
    179a:	0e 94 1c 12 	call	0x2438	; 0x2438 <__mulsf3>
    179e:	9b 01       	movw	r18, r22
    17a0:	ac 01       	movw	r20, r24
    17a2:	f7 01       	movw	r30, r14
    17a4:	60 81       	ld	r22, Z
    17a6:	71 81       	ldd	r23, Z+1	; 0x01
    17a8:	82 81       	ldd	r24, Z+2	; 0x02
    17aa:	93 81       	ldd	r25, Z+3	; 0x03
    17ac:	0e 94 4c 10 	call	0x2098	; 0x2098 <__addsf3>
    17b0:	f7 01       	movw	r30, r14
    17b2:	60 83       	st	Z, r22
    17b4:	71 83       	std	Z+1, r23	; 0x01
    17b6:	82 83       	std	Z+2, r24	; 0x02
    17b8:	93 83       	std	Z+3, r25	; 0x03
    17ba:	bc cf       	rjmp	.-136    	; 0x1734 <sfm10r1_get_temperature+0xac>
    17bc:	11 30       	cpi	r17, 0x01	; 1
    17be:	a1 f4       	brne	.+40     	; 0x17e8 <sfm10r1_get_temperature+0x160>
    17c0:	70 e0       	ldi	r23, 0x00	; 0
    17c2:	80 e0       	ldi	r24, 0x00	; 0
    17c4:	90 e0       	ldi	r25, 0x00	; 0
    17c6:	0e 94 65 11 	call	0x22ca	; 0x22ca <__floatunsisf>
    17ca:	9b 01       	movw	r18, r22
    17cc:	ac 01       	movw	r20, r24
    17ce:	f7 01       	movw	r30, r14
    17d0:	60 81       	ld	r22, Z
    17d2:	71 81       	ldd	r23, Z+1	; 0x01
    17d4:	82 81       	ldd	r24, Z+2	; 0x02
    17d6:	93 81       	ldd	r25, Z+3	; 0x03
    17d8:	0e 94 4c 10 	call	0x2098	; 0x2098 <__addsf3>
    17dc:	f7 01       	movw	r30, r14
    17de:	60 83       	st	Z, r22
    17e0:	71 83       	std	Z+1, r23	; 0x01
    17e2:	82 83       	std	Z+2, r24	; 0x02
    17e4:	93 83       	std	Z+3, r25	; 0x03
    17e6:	a6 cf       	rjmp	.-180    	; 0x1734 <sfm10r1_get_temperature+0xac>
    17e8:	70 e0       	ldi	r23, 0x00	; 0
    17ea:	80 e0       	ldi	r24, 0x00	; 0
    17ec:	90 e0       	ldi	r25, 0x00	; 0
    17ee:	0e 94 65 11 	call	0x22ca	; 0x22ca <__floatunsisf>
    17f2:	2d ec       	ldi	r18, 0xCD	; 205
    17f4:	3c ec       	ldi	r19, 0xCC	; 204
    17f6:	4c ec       	ldi	r20, 0xCC	; 204
    17f8:	5d e3       	ldi	r21, 0x3D	; 61
    17fa:	0e 94 1c 12 	call	0x2438	; 0x2438 <__mulsf3>
    17fe:	9b 01       	movw	r18, r22
    1800:	ac 01       	movw	r20, r24
    1802:	f7 01       	movw	r30, r14
    1804:	60 81       	ld	r22, Z
    1806:	71 81       	ldd	r23, Z+1	; 0x01
    1808:	82 81       	ldd	r24, Z+2	; 0x02
    180a:	93 81       	ldd	r25, Z+3	; 0x03
    180c:	0e 94 4c 10 	call	0x2098	; 0x2098 <__addsf3>
    1810:	f7 01       	movw	r30, r14
    1812:	60 83       	st	Z, r22
    1814:	71 83       	std	Z+1, r23	; 0x01
    1816:	82 83       	std	Z+2, r24	; 0x02
    1818:	93 83       	std	Z+3, r25	; 0x03
    181a:	03 30       	cpi	r16, 0x03	; 3
    181c:	08 f4       	brcc	.+2      	; 0x1820 <sfm10r1_get_temperature+0x198>
    181e:	8a cf       	rjmp	.-236    	; 0x1734 <sfm10r1_get_temperature+0xac>
    1820:	81 e0       	ldi	r24, 0x01	; 1
    1822:	01 c0       	rjmp	.+2      	; 0x1826 <sfm10r1_get_temperature+0x19e>
    1824:	80 e0       	ldi	r24, 0x00	; 0
    1826:	26 96       	adiw	r28, 0x06	; 6
    1828:	0f b6       	in	r0, 0x3f	; 63
    182a:	f8 94       	cli
    182c:	de bf       	out	0x3e, r29	; 62
    182e:	0f be       	out	0x3f, r0	; 63
    1830:	cd bf       	out	0x3d, r28	; 61
    1832:	df 91       	pop	r29
    1834:	cf 91       	pop	r28
    1836:	1f 91       	pop	r17
    1838:	0f 91       	pop	r16
    183a:	ff 90       	pop	r15
    183c:	ef 90       	pop	r14
    183e:	df 90       	pop	r13
    1840:	cf 90       	pop	r12
    1842:	bf 90       	pop	r11
    1844:	af 90       	pop	r10
    1846:	9f 90       	pop	r9
    1848:	8f 90       	pop	r8
    184a:	7f 90       	pop	r7
    184c:	6f 90       	pop	r6
    184e:	5f 90       	pop	r5
    1850:	4f 90       	pop	r4
    1852:	08 95       	ret

00001854 <sfm10r1_set_transmit_repeats>:
    1854:	cf 93       	push	r28
    1856:	df 93       	push	r29
    1858:	cd b7       	in	r28, 0x3d	; 61
    185a:	de b7       	in	r29, 0x3e	; 62
    185c:	28 97       	sbiw	r28, 0x08	; 8
    185e:	0f b6       	in	r0, 0x3f	; 63
    1860:	f8 94       	cli
    1862:	de bf       	out	0x3e, r29	; 62
    1864:	0f be       	out	0x3f, r0	; 63
    1866:	cd bf       	out	0x3d, r28	; 61
    1868:	98 e0       	ldi	r25, 0x08	; 8
    186a:	e3 e1       	ldi	r30, 0x13	; 19
    186c:	f1 e0       	ldi	r31, 0x01	; 1
    186e:	de 01       	movw	r26, r28
    1870:	11 96       	adiw	r26, 0x01	; 1
    1872:	01 90       	ld	r0, Z+
    1874:	0d 92       	st	X+, r0
    1876:	9a 95       	dec	r25
    1878:	e1 f7       	brne	.-8      	; 0x1872 <sfm10r1_set_transmit_repeats+0x1e>
    187a:	81 11       	cpse	r24, r1
    187c:	03 c0       	rjmp	.+6      	; 0x1884 <sfm10r1_set_transmit_repeats+0x30>
    187e:	80 e3       	ldi	r24, 0x30	; 48
    1880:	8f 83       	std	Y+7, r24	; 0x07
    1882:	09 c0       	rjmp	.+18     	; 0x1896 <sfm10r1_set_transmit_repeats+0x42>
    1884:	81 30       	cpi	r24, 0x01	; 1
    1886:	19 f4       	brne	.+6      	; 0x188e <sfm10r1_set_transmit_repeats+0x3a>
    1888:	81 e3       	ldi	r24, 0x31	; 49
    188a:	8f 83       	std	Y+7, r24	; 0x07
    188c:	04 c0       	rjmp	.+8      	; 0x1896 <sfm10r1_set_transmit_repeats+0x42>
    188e:	82 30       	cpi	r24, 0x02	; 2
    1890:	c9 f4       	brne	.+50     	; 0x18c4 <sfm10r1_set_transmit_repeats+0x70>
    1892:	82 e3       	ldi	r24, 0x32	; 50
    1894:	8f 83       	std	Y+7, r24	; 0x07
    1896:	68 e0       	ldi	r22, 0x08	; 8
    1898:	ce 01       	movw	r24, r28
    189a:	01 96       	adiw	r24, 0x01	; 1
    189c:	0e 94 db 09 	call	0x13b6	; 0x13b6 <software_uart_write_bytes>
    18a0:	44 ef       	ldi	r20, 0xF4	; 244
    18a2:	51 e0       	ldi	r21, 0x01	; 1
    18a4:	64 e0       	ldi	r22, 0x04	; 4
    18a6:	ce 01       	movw	r24, r28
    18a8:	01 96       	adiw	r24, 0x01	; 1
    18aa:	0e 94 1f 0a 	call	0x143e	; 0x143e <software_uart_read_bytes>
    18ae:	88 23       	and	r24, r24
    18b0:	61 f0       	breq	.+24     	; 0x18ca <sfm10r1_set_transmit_repeats+0x76>
    18b2:	89 81       	ldd	r24, Y+1	; 0x01
    18b4:	8f 34       	cpi	r24, 0x4F	; 79
    18b6:	41 f4       	brne	.+16     	; 0x18c8 <sfm10r1_set_transmit_repeats+0x74>
    18b8:	81 e0       	ldi	r24, 0x01	; 1
    18ba:	9a 81       	ldd	r25, Y+2	; 0x02
    18bc:	9b 34       	cpi	r25, 0x4B	; 75
    18be:	29 f0       	breq	.+10     	; 0x18ca <sfm10r1_set_transmit_repeats+0x76>
    18c0:	80 e0       	ldi	r24, 0x00	; 0
    18c2:	03 c0       	rjmp	.+6      	; 0x18ca <sfm10r1_set_transmit_repeats+0x76>
    18c4:	80 e0       	ldi	r24, 0x00	; 0
    18c6:	01 c0       	rjmp	.+2      	; 0x18ca <sfm10r1_set_transmit_repeats+0x76>
    18c8:	80 e0       	ldi	r24, 0x00	; 0
    18ca:	28 96       	adiw	r28, 0x08	; 8
    18cc:	0f b6       	in	r0, 0x3f	; 63
    18ce:	f8 94       	cli
    18d0:	de bf       	out	0x3e, r29	; 62
    18d2:	0f be       	out	0x3f, r0	; 63
    18d4:	cd bf       	out	0x3d, r28	; 61
    18d6:	df 91       	pop	r29
    18d8:	cf 91       	pop	r28
    18da:	08 95       	ret

000018dc <sfm10r1_save_config>:
    18dc:	cf 93       	push	r28
    18de:	df 93       	push	r29
    18e0:	00 d0       	rcall	.+0      	; 0x18e2 <sfm10r1_save_config+0x6>
    18e2:	00 d0       	rcall	.+0      	; 0x18e4 <sfm10r1_save_config+0x8>
    18e4:	00 d0       	rcall	.+0      	; 0x18e6 <sfm10r1_save_config+0xa>
    18e6:	cd b7       	in	r28, 0x3d	; 61
    18e8:	de b7       	in	r29, 0x3e	; 62
    18ea:	86 e0       	ldi	r24, 0x06	; 6
    18ec:	eb e1       	ldi	r30, 0x1B	; 27
    18ee:	f1 e0       	ldi	r31, 0x01	; 1
    18f0:	de 01       	movw	r26, r28
    18f2:	11 96       	adiw	r26, 0x01	; 1
    18f4:	01 90       	ld	r0, Z+
    18f6:	0d 92       	st	X+, r0
    18f8:	8a 95       	dec	r24
    18fa:	e1 f7       	brne	.-8      	; 0x18f4 <sfm10r1_save_config+0x18>
    18fc:	66 e0       	ldi	r22, 0x06	; 6
    18fe:	ce 01       	movw	r24, r28
    1900:	01 96       	adiw	r24, 0x01	; 1
    1902:	0e 94 db 09 	call	0x13b6	; 0x13b6 <software_uart_write_bytes>
    1906:	44 ef       	ldi	r20, 0xF4	; 244
    1908:	51 e0       	ldi	r21, 0x01	; 1
    190a:	64 e0       	ldi	r22, 0x04	; 4
    190c:	ce 01       	movw	r24, r28
    190e:	01 96       	adiw	r24, 0x01	; 1
    1910:	0e 94 1f 0a 	call	0x143e	; 0x143e <software_uart_read_bytes>
    1914:	88 23       	and	r24, r24
    1916:	51 f0       	breq	.+20     	; 0x192c <sfm10r1_save_config+0x50>
    1918:	89 81       	ldd	r24, Y+1	; 0x01
    191a:	8f 34       	cpi	r24, 0x4F	; 79
    191c:	31 f4       	brne	.+12     	; 0x192a <sfm10r1_save_config+0x4e>
    191e:	81 e0       	ldi	r24, 0x01	; 1
    1920:	9a 81       	ldd	r25, Y+2	; 0x02
    1922:	9b 34       	cpi	r25, 0x4B	; 75
    1924:	19 f0       	breq	.+6      	; 0x192c <sfm10r1_save_config+0x50>
    1926:	80 e0       	ldi	r24, 0x00	; 0
    1928:	01 c0       	rjmp	.+2      	; 0x192c <sfm10r1_save_config+0x50>
    192a:	80 e0       	ldi	r24, 0x00	; 0
    192c:	26 96       	adiw	r28, 0x06	; 6
    192e:	0f b6       	in	r0, 0x3f	; 63
    1930:	f8 94       	cli
    1932:	de bf       	out	0x3e, r29	; 62
    1934:	0f be       	out	0x3f, r0	; 63
    1936:	cd bf       	out	0x3d, r28	; 61
    1938:	df 91       	pop	r29
    193a:	cf 91       	pop	r28
    193c:	08 95       	ret

0000193e <__vector_1>:

ISR (INT0_vect) // wake up interrupt
{
    193e:	1f 92       	push	r1
    1940:	0f 92       	push	r0
    1942:	0f b6       	in	r0, 0x3f	; 63
    1944:	0f 92       	push	r0
    1946:	11 24       	eor	r1, r1
	// nothing to do here, but executed after each wake up
}
    1948:	0f 90       	pop	r0
    194a:	0f be       	out	0x3f, r0	; 63
    194c:	0f 90       	pop	r0
    194e:	1f 90       	pop	r1
    1950:	18 95       	reti

00001952 <enter_sleep>:

void enter_sleep() {
	/* enter in sleep with power down mode */
	EIMSK = EIMSK | (1 << INT0);
    1952:	e8 9a       	sbi	0x1d, 0	; 29
	set_sleep_mode(SLEEP_MODE_PWR_DOWN);
    1954:	83 b7       	in	r24, 0x33	; 51
    1956:	81 7f       	andi	r24, 0xF1	; 241
    1958:	84 60       	ori	r24, 0x04	; 4
    195a:	83 bf       	out	0x33, r24	; 51
	sei();
    195c:	78 94       	sei
	sleep_mode();
    195e:	83 b7       	in	r24, 0x33	; 51
    1960:	81 60       	ori	r24, 0x01	; 1
    1962:	83 bf       	out	0x33, r24	; 51
    1964:	88 95       	sleep
    1966:	83 b7       	in	r24, 0x33	; 51
    1968:	8e 7f       	andi	r24, 0xFE	; 254
    196a:	83 bf       	out	0x33, r24	; 51
	cli();
    196c:	f8 94       	cli
	EIMSK = EIMSK & ~(1 << INT0);
    196e:	e8 98       	cbi	0x1d, 0	; 29
    1970:	08 95       	ret

00001972 <enter_error_state>:
}

void enter_error_state(uint8_t state) {
    1972:	cf 93       	push	r28
    1974:	c8 2f       	mov	r28, r24
	/* error state */

	// must switch ON peripherals to use LED
	power_on_external_peripherals();
    1976:	0e 94 24 01 	call	0x248	; 0x248 <power_on_external_peripherals>

	// error during launch sequence
	if (state == 1) {
    197a:	c1 30       	cpi	r28, 0x01	; 1
    197c:	79 f4       	brne	.+30     	; 0x199c <enter_error_state+0x2a>
		power_blink_state_led(250, 250, 60000);
    197e:	20 e6       	ldi	r18, 0x60	; 96
    1980:	3a ee       	ldi	r19, 0xEA	; 234
    1982:	40 e0       	ldi	r20, 0x00	; 0
    1984:	50 e0       	ldi	r21, 0x00	; 0
    1986:	6a ef       	ldi	r22, 0xFA	; 250
    1988:	70 e0       	ldi	r23, 0x00	; 0
    198a:	8a ef       	ldi	r24, 0xFA	; 250
    198c:	90 e0       	ldi	r25, 0x00	; 0
    198e:	0e 94 3a 01 	call	0x274	; 0x274 <power_blink_state_led>
		power_off_external_peripherals();
    1992:	0e 94 30 01 	call	0x260	; 0x260 <power_off_external_peripherals>
		enter_sleep();
    1996:	0e 94 a9 0c 	call	0x1952	; 0x1952 <enter_sleep>
    199a:	10 c0       	rjmp	.+32     	; 0x19bc <enter_error_state+0x4a>
	}

	// error during the test cycle
	else if (state == 2) {
    199c:	c2 30       	cpi	r28, 0x02	; 2
    199e:	71 f4       	brne	.+28     	; 0x19bc <enter_error_state+0x4a>
		power_blink_state_led(1000, 200, 60000);
    19a0:	20 e6       	ldi	r18, 0x60	; 96
    19a2:	3a ee       	ldi	r19, 0xEA	; 234
    19a4:	40 e0       	ldi	r20, 0x00	; 0
    19a6:	50 e0       	ldi	r21, 0x00	; 0
    19a8:	68 ec       	ldi	r22, 0xC8	; 200
    19aa:	70 e0       	ldi	r23, 0x00	; 0
    19ac:	88 ee       	ldi	r24, 0xE8	; 232
    19ae:	93 e0       	ldi	r25, 0x03	; 3
    19b0:	0e 94 3a 01 	call	0x274	; 0x274 <power_blink_state_led>
		power_off_external_peripherals();
    19b4:	0e 94 30 01 	call	0x260	; 0x260 <power_off_external_peripherals>
		enter_sleep();
    19b8:	0e 94 a9 0c 	call	0x1952	; 0x1952 <enter_sleep>
	}
}
    19bc:	cf 91       	pop	r28
    19be:	08 95       	ret

000019c0 <init>:

void init() {
    19c0:	cf 92       	push	r12
    19c2:	df 92       	push	r13
    19c4:	ef 92       	push	r14
    19c6:	0f 93       	push	r16
    19c8:	cf 93       	push	r28
    19ca:	df 93       	push	r29
    19cc:	1f 92       	push	r1
    19ce:	cd b7       	in	r28, 0x3d	; 61
    19d0:	de b7       	in	r29, 0x3e	; 62
	/* init sequence */
	uint8_t cleared_ds3231_alarms;

	/* disable global interrupts */
	cli();
    19d2:	f8 94       	cli
	
	/* setup wake up interrupt setting */
	EICRA = 0x00;
    19d4:	10 92 69 00 	sts	0x0069, r1	; 0x800069 <__DATA_REGION_ORIGIN__+0x9>

	/* prepare peripherals for the launch sequence */
	power_on_external_peripherals();
    19d8:	0e 94 24 01 	call	0x248	; 0x248 <power_on_external_peripherals>

	/* power ON state led */
	power_on_state_led();
    19dc:	0e 94 34 01 	call	0x268	; 0x268 <power_on_state_led>

	/* setup clock system */
	if (!power_setup_clock()) { // if failure
    19e0:	0e 94 a3 01 	call	0x346	; 0x346 <power_setup_clock>
    19e4:	81 11       	cpse	r24, r1
    19e6:	03 c0       	rjmp	.+6      	; 0x19ee <init+0x2e>
		enter_error_state(1);
    19e8:	81 e0       	ldi	r24, 0x01	; 1
    19ea:	0e 94 b9 0c 	call	0x1972	; 0x1972 <enter_error_state>
	}
	

	/* check battery level */
	if (!power_battery_startup_check()) { // if failure
    19ee:	0e 94 b0 01 	call	0x360	; 0x360 <power_battery_startup_check>
    19f2:	81 11       	cpse	r24, r1
    19f4:	03 c0       	rjmp	.+6      	; 0x19fc <init+0x3c>
		enter_error_state(1);
    19f6:	81 e0       	ldi	r24, 0x01	; 1
    19f8:	0e 94 b9 0c 	call	0x1972	; 0x1972 <enter_error_state>
	}
	

	/* setup DS3231 */
	// start i2c bus
	i2c_init();
    19fc:	0e 94 8e 03 	call	0x71c	; 0x71c <i2c_init>
	// reset ds3231
	if (!ds3231_reset()) { // if failure
    1a00:	0e 94 2a 05 	call	0xa54	; 0xa54 <ds3231_reset>
    1a04:	81 11       	cpse	r24, r1
    1a06:	03 c0       	rjmp	.+6      	; 0x1a0e <init+0x4e>
		enter_error_state(1);
    1a08:	81 e0       	ldi	r24, 0x01	; 1
    1a0a:	0e 94 b9 0c 	call	0x1972	; 0x1972 <enter_error_state>
	}
	// disable 32kHz pin
	if (!ds3231_disable_32kHz_pin()) { // if failure
    1a0e:	0e 94 4b 05 	call	0xa96	; 0xa96 <ds3231_disable_32kHz_pin>
    1a12:	81 11       	cpse	r24, r1
    1a14:	03 c0       	rjmp	.+6      	; 0x1a1c <init+0x5c>
		enter_error_state(1);
    1a16:	81 e0       	ldi	r24, 0x01	; 1
    1a18:	0e 94 b9 0c 	call	0x1972	; 0x1972 <enter_error_state>
	}
	// set default date time
	if (!ds3231_set_datetime(0, 0, 0, 7, 3, 1, 21)) { // if failure
    1a1c:	0f 2e       	mov	r0, r31
    1a1e:	f5 e1       	ldi	r31, 0x15	; 21
    1a20:	cf 2e       	mov	r12, r31
    1a22:	d1 2c       	mov	r13, r1
    1a24:	f0 2d       	mov	r31, r0
    1a26:	ee 24       	eor	r14, r14
    1a28:	e3 94       	inc	r14
    1a2a:	03 e0       	ldi	r16, 0x03	; 3
    1a2c:	27 e0       	ldi	r18, 0x07	; 7
    1a2e:	40 e0       	ldi	r20, 0x00	; 0
    1a30:	60 e0       	ldi	r22, 0x00	; 0
    1a32:	80 e0       	ldi	r24, 0x00	; 0
    1a34:	0e 94 79 05 	call	0xaf2	; 0xaf2 <ds3231_set_datetime>
    1a38:	81 11       	cpse	r24, r1
    1a3a:	03 c0       	rjmp	.+6      	; 0x1a42 <init+0x82>
		enter_error_state(1);
    1a3c:	81 e0       	ldi	r24, 0x01	; 1
    1a3e:	0e 94 b9 0c 	call	0x1972	; 0x1972 <enter_error_state>
	}
	// setup alarm 1
	if (!ds3231_set_alarm_1(0, 0, 0, 1, DS3231_ALARM_1_MATCH_SECONDS_MINUTES, 0)) { // if failure
    1a42:	e1 2c       	mov	r14, r1
    1a44:	0c e0       	ldi	r16, 0x0C	; 12
    1a46:	21 e0       	ldi	r18, 0x01	; 1
    1a48:	40 e0       	ldi	r20, 0x00	; 0
    1a4a:	60 e0       	ldi	r22, 0x00	; 0
    1a4c:	80 e0       	ldi	r24, 0x00	; 0
    1a4e:	0e 94 55 06 	call	0xcaa	; 0xcaa <ds3231_set_alarm_1>
    1a52:	81 11       	cpse	r24, r1
    1a54:	03 c0       	rjmp	.+6      	; 0x1a5c <init+0x9c>
		enter_error_state(1);
    1a56:	81 e0       	ldi	r24, 0x01	; 1
    1a58:	0e 94 b9 0c 	call	0x1972	; 0x1972 <enter_error_state>
	}
	// enable alarm 1 and enable the use of the interrupt pin for alarm 1
	if (!ds3231_enable_alarm_1()) { // if failure
    1a5c:	0e 94 1e 07 	call	0xe3c	; 0xe3c <ds3231_enable_alarm_1>
    1a60:	81 11       	cpse	r24, r1
    1a62:	03 c0       	rjmp	.+6      	; 0x1a6a <init+0xaa>
		enter_error_state(1);
    1a64:	81 e0       	ldi	r24, 0x01	; 1
    1a66:	0e 94 b9 0c 	call	0x1972	; 0x1972 <enter_error_state>
	}
	// disable alarm 2 and disable the use of the interrupt pin for alarm 2
	if (!ds3231_disable_alarm_2()) { // if failure
    1a6a:	0e 94 22 07 	call	0xe44	; 0xe44 <ds3231_disable_alarm_2>
    1a6e:	81 11       	cpse	r24, r1
    1a70:	03 c0       	rjmp	.+6      	; 0x1a78 <init+0xb8>
		enter_error_state(1);
    1a72:	81 e0       	ldi	r24, 0x01	; 1
    1a74:	0e 94 b9 0c 	call	0x1972	; 0x1972 <enter_error_state>
	}
	// enable alarm interrupt function on INT pin of the DS3231 chip
	if (!ds3231_enable_interrupt_pin()) {
    1a78:	0e 94 62 05 	call	0xac4	; 0xac4 <ds3231_enable_interrupt_pin>
    1a7c:	81 11       	cpse	r24, r1
    1a7e:	03 c0       	rjmp	.+6      	; 0x1a86 <init+0xc6>
		enter_error_state(1);
    1a80:	81 e0       	ldi	r24, 0x01	; 1
    1a82:	0e 94 b9 0c 	call	0x1972	; 0x1972 <enter_error_state>
	}
	// enable interrupt pin of the chip and clear current alarms flags
	if (!ds3231_enable_interrupt_pin() || !ds3231_clear_alarm_flags(&cleared_ds3231_alarms)) { // if failure
    1a86:	0e 94 62 05 	call	0xac4	; 0xac4 <ds3231_enable_interrupt_pin>
    1a8a:	88 23       	and	r24, r24
    1a8c:	31 f0       	breq	.+12     	; 0x1a9a <init+0xda>
    1a8e:	ce 01       	movw	r24, r28
    1a90:	01 96       	adiw	r24, 0x01	; 1
    1a92:	0e 94 26 07 	call	0xe4c	; 0xe4c <ds3231_clear_alarm_flags>
    1a96:	81 11       	cpse	r24, r1
    1a98:	03 c0       	rjmp	.+6      	; 0x1aa0 <init+0xe0>
		enter_error_state(1);
    1a9a:	81 e0       	ldi	r24, 0x01	; 1
    1a9c:	0e 94 b9 0c 	call	0x1972	; 0x1972 <enter_error_state>
  i2c_status_OK = 1;
}

void i2c_end() {
	/* stop i2c transceiver and release pins */
	TWCR = (0<<TWEN)|                                 // Disable TWI-interface and release TWI pins
    1aa0:	10 92 bc 00 	sts	0x00BC, r1	; 0x8000bc <__DATA_REGION_ORIGIN__+0x5c>
	}
	i2c_end(); // stop i2c bus
	
	/* setup SFM10R1 */
	sfm10r1_init(); // init communication
    1aa4:	0e 94 b7 0a 	call	0x156e	; 0x156e <sfm10r1_init>
	if (!sfm10r1_ping()) {
    1aa8:	0e 94 c1 0a 	call	0x1582	; 0x1582 <sfm10r1_ping>
    1aac:	81 11       	cpse	r24, r1
    1aae:	03 c0       	rjmp	.+6      	; 0x1ab6 <init+0xf6>
		enter_error_state(1);
    1ab0:	81 e0       	ldi	r24, 0x01	; 1
    1ab2:	0e 94 b9 0c 	call	0x1972	; 0x1972 <enter_error_state>
	}
	if (!sfm10r1_set_transmit_repeats(SIGFOX_TRANSMIT_REPEATS)) {
    1ab6:	81 e0       	ldi	r24, 0x01	; 1
    1ab8:	0e 94 2a 0c 	call	0x1854	; 0x1854 <sfm10r1_set_transmit_repeats>
    1abc:	81 11       	cpse	r24, r1
    1abe:	03 c0       	rjmp	.+6      	; 0x1ac6 <init+0x106>
		enter_error_state(1);
    1ac0:	81 e0       	ldi	r24, 0x01	; 1
    1ac2:	0e 94 b9 0c 	call	0x1972	; 0x1972 <enter_error_state>
	}
	if (!sfm10r1_save_config()) {
    1ac6:	0e 94 6e 0c 	call	0x18dc	; 0x18dc <sfm10r1_save_config>
    1aca:	81 11       	cpse	r24, r1
    1acc:	03 c0       	rjmp	.+6      	; 0x1ad4 <init+0x114>
		enter_error_state(1);
    1ace:	81 e0       	ldi	r24, 0x01	; 1
    1ad0:	0e 94 b9 0c 	call	0x1972	; 0x1972 <enter_error_state>
	}
	sfm10r1_end(); // stop communication
    1ad4:	0e 94 bc 0a 	call	0x1578	; 0x1578 <sfm10r1_end>

	// power off state led, launch sequence is finished
	power_off_state_led();
    1ad8:	0e 94 37 01 	call	0x26e	; 0x26e <power_off_state_led>
}
    1adc:	0f 90       	pop	r0
    1ade:	df 91       	pop	r29
    1ae0:	cf 91       	pop	r28
    1ae2:	0f 91       	pop	r16
    1ae4:	ef 90       	pop	r14
    1ae6:	df 90       	pop	r13
    1ae8:	cf 90       	pop	r12
    1aea:	08 95       	ret

00001aec <measure_cycle>:

void measure_cycle(uint8_t is_test_cycle) {
    1aec:	2f 92       	push	r2
    1aee:	3f 92       	push	r3
    1af0:	4f 92       	push	r4
    1af2:	5f 92       	push	r5
    1af4:	6f 92       	push	r6
    1af6:	7f 92       	push	r7
    1af8:	8f 92       	push	r8
    1afa:	9f 92       	push	r9
    1afc:	af 92       	push	r10
    1afe:	bf 92       	push	r11
    1b00:	cf 92       	push	r12
    1b02:	df 92       	push	r13
    1b04:	ef 92       	push	r14
    1b06:	ff 92       	push	r15
    1b08:	0f 93       	push	r16
    1b0a:	1f 93       	push	r17
    1b0c:	cf 93       	push	r28
    1b0e:	df 93       	push	r29
    1b10:	cd b7       	in	r28, 0x3d	; 61
    1b12:	de b7       	in	r29, 0x3e	; 62
    1b14:	cc 54       	subi	r28, 0x4C	; 76
    1b16:	d1 09       	sbc	r29, r1
    1b18:	0f b6       	in	r0, 0x3f	; 63
    1b1a:	f8 94       	cli
    1b1c:	de bf       	out	0x3e, r29	; 62
    1b1e:	0f be       	out	0x3f, r0	; 63
    1b20:	cd bf       	out	0x3d, r28	; 61
    1b22:	2b 96       	adiw	r28, 0x0b	; 11
    1b24:	8f af       	std	Y+63, r24	; 0x3f
    1b26:	2b 97       	sbiw	r28, 0x0b	; 11
	uint8_t raw_weight[3];
	float sht_humidity;
	uint8_t sht_humidity_processed;
	float sht_temperature;
	uint8_t sht_temperature_processed[2];
	float ds18b20_temperature = 101.0;
    1b28:	80 e0       	ldi	r24, 0x00	; 0
    1b2a:	90 e0       	ldi	r25, 0x00	; 0
    1b2c:	aa ec       	ldi	r26, 0xCA	; 202
    1b2e:	b2 e4       	ldi	r27, 0x42	; 66
    1b30:	88 ab       	std	Y+48, r24	; 0x30
    1b32:	99 ab       	std	Y+49, r25	; 0x31
    1b34:	aa ab       	std	Y+50, r26	; 0x32
    1b36:	bb ab       	std	Y+51, r27	; 0x33
	uint8_t ds18b20_temperature_processed[2];
	float sfm10r1_temperature;
	uint8_t sfm10r1_temperature_processed[2];

	// power state led for 100ms
	power_on_state_led();
    1b38:	0e 94 34 01 	call	0x268	; 0x268 <power_on_state_led>
	#else
		//round up by default
		__ticks_dc = (uint32_t)(ceil(fabs(__tmp)));
	#endif

	__builtin_avr_delay_cycles(__ticks_dc);
    1b3c:	2f ef       	ldi	r18, 0xFF	; 255
    1b3e:	30 e7       	ldi	r19, 0x70	; 112
    1b40:	42 e0       	ldi	r20, 0x02	; 2
    1b42:	21 50       	subi	r18, 0x01	; 1
    1b44:	30 40       	sbci	r19, 0x00	; 0
    1b46:	40 40       	sbci	r20, 0x00	; 0
    1b48:	e1 f7       	brne	.-8      	; 0x1b42 <measure_cycle+0x56>
    1b4a:	00 c0       	rjmp	.+0      	; 0x1b4c <measure_cycle+0x60>
    1b4c:	00 00       	nop
	_delay_ms(100);
	power_off_state_led();
    1b4e:	0e 94 37 01 	call	0x26e	; 0x26e <power_off_state_led>

	/* collect measurements */

	// battery voltage
	battery_voltage = power_get_battery_voltage();
    1b52:	0e 94 be 00 	call	0x17c	; 0x17c <power_get_battery_voltage>
    1b56:	6b 01       	movw	r12, r22
    1b58:	7c 01       	movw	r14, r24

	// solar intensity
	solar_intensity = power_get_solar_intensity();
    1b5a:	0e 94 f4 00 	call	0x1e8	; 0x1e8 <power_get_solar_intensity>
    1b5e:	6a af       	std	Y+58, r22	; 0x3a
    1b60:	7b af       	std	Y+59, r23	; 0x3b
    1b62:	8c af       	std	Y+60, r24	; 0x3c
    1b64:	9d af       	std	Y+61, r25	; 0x3d
 
	// raw weight
	hx711_init(); // init hx711 chip
    1b66:	0e 94 c0 01 	call	0x380	; 0x380 <hx711_init>
	if (!hx711_multiple_conversion_average(0, 10, raw_weight)) { // average of 10 conversions using channel A with gain = 128
    1b6a:	ae 01       	movw	r20, r28
    1b6c:	4b 5d       	subi	r20, 0xDB	; 219
    1b6e:	5f 4f       	sbci	r21, 0xFF	; 255
    1b70:	6a e0       	ldi	r22, 0x0A	; 10
    1b72:	80 e0       	ldi	r24, 0x00	; 0
    1b74:	0e 94 78 02 	call	0x4f0	; 0x4f0 <hx711_multiple_conversion_average>
    1b78:	81 11       	cpse	r24, r1
    1b7a:	01 c0       	rjmp	.+2      	; 0x1b7e <measure_cycle+0x92>
		raw_weight[0] = 0x00;
    1b7c:	1d a2       	std	Y+37, r1	; 0x25
		raw_weight[0] = 0x00;
		raw_weight[0] = 0x00;
	}
	hx711_end();
    1b7e:	0e 94 e1 01 	call	0x3c2	; 0x3c2 <hx711_end>
	
	// SHT3x humidity and temperature
	i2c_init();
    1b82:	0e 94 8e 03 	call	0x71c	; 0x71c <i2c_init>
    1b86:	8f ec       	ldi	r24, 0xCF	; 207
    1b88:	97 e0       	ldi	r25, 0x07	; 7
    1b8a:	01 97       	sbiw	r24, 0x01	; 1
    1b8c:	f1 f7       	brne	.-4      	; 0x1b8a <measure_cycle+0x9e>
    1b8e:	00 c0       	rjmp	.+0      	; 0x1b90 <measure_cycle+0xa4>
    1b90:	00 00       	nop
	_delay_ms(1); // wait until the chip is ready
	sht3x_reset(); // reset the chip
    1b92:	0e 94 24 08 	call	0x1048	; 0x1048 <sht3x_reset>
	if (!sht3x_get_measurement(0x03, &sht_temperature, &sht_humidity)) { // collect temperature and humidity
    1b96:	ae 01       	movw	r20, r28
    1b98:	48 5d       	subi	r20, 0xD8	; 216
    1b9a:	5f 4f       	sbci	r21, 0xFF	; 255
    1b9c:	be 01       	movw	r22, r28
    1b9e:	64 5d       	subi	r22, 0xD4	; 212
    1ba0:	7f 4f       	sbci	r23, 0xFF	; 255
    1ba2:	83 e0       	ldi	r24, 0x03	; 3
    1ba4:	0e 94 ce 09 	call	0x139c	; 0x139c <sht3x_get_measurement>
    1ba8:	81 11       	cpse	r24, r1
    1baa:	0c c0       	rjmp	.+24     	; 0x1bc4 <measure_cycle+0xd8>
		// server backend will detect a failure if temperature and humidity have unbelievable values
		sht_humidity = 101;
    1bac:	80 e0       	ldi	r24, 0x00	; 0
    1bae:	90 e0       	ldi	r25, 0x00	; 0
    1bb0:	aa ec       	ldi	r26, 0xCA	; 202
    1bb2:	b2 e4       	ldi	r27, 0x42	; 66
    1bb4:	88 a7       	std	Y+40, r24	; 0x28
    1bb6:	99 a7       	std	Y+41, r25	; 0x29
    1bb8:	aa a7       	std	Y+42, r26	; 0x2a
    1bba:	bb a7       	std	Y+43, r27	; 0x2b
		sht_temperature = 101;
    1bbc:	8c a7       	std	Y+44, r24	; 0x2c
    1bbe:	9d a7       	std	Y+45, r25	; 0x2d
    1bc0:	ae a7       	std	Y+46, r26	; 0x2e
    1bc2:	bf a7       	std	Y+47, r27	; 0x2f
    1bc4:	10 92 bc 00 	sts	0x00BC, r1	; 0x8000bc <__DATA_REGION_ORIGIN__+0x5c>
	}
	i2c_end();

	// DS18B20 temperature
	if (ds18b20_setup(10)) { // setup the chip with the desired resolution
    1bc8:	8a e0       	ldi	r24, 0x0A	; 10
    1bca:	0e 94 4e 07 	call	0xe9c	; 0xe9c <ds18b20_setup>
    1bce:	88 23       	and	r24, r24
    1bd0:	79 f0       	breq	.+30     	; 0x1bf0 <measure_cycle+0x104>
		if (!ds18b20_get_temperature(&ds18b20_temperature)) { // collect the temperature
    1bd2:	ce 01       	movw	r24, r28
    1bd4:	c0 96       	adiw	r24, 0x30	; 48
    1bd6:	0e 94 0b 08 	call	0x1016	; 0x1016 <ds18b20_get_temperature>
    1bda:	81 11       	cpse	r24, r1
    1bdc:	11 c0       	rjmp	.+34     	; 0x1c00 <measure_cycle+0x114>
			// server backend will detect a failure if temperature has an unbelievable value
			ds18b20_temperature = 101;
    1bde:	80 e0       	ldi	r24, 0x00	; 0
    1be0:	90 e0       	ldi	r25, 0x00	; 0
    1be2:	aa ec       	ldi	r26, 0xCA	; 202
    1be4:	b2 e4       	ldi	r27, 0x42	; 66
    1be6:	88 ab       	std	Y+48, r24	; 0x30
    1be8:	99 ab       	std	Y+49, r25	; 0x31
    1bea:	aa ab       	std	Y+50, r26	; 0x32
    1bec:	bb ab       	std	Y+51, r27	; 0x33
    1bee:	08 c0       	rjmp	.+16     	; 0x1c00 <measure_cycle+0x114>
		else {
		}
	}
	else {
		// server backend will detect a failure if temperature has an unbelievable value
		ds18b20_temperature = 101;
    1bf0:	80 e0       	ldi	r24, 0x00	; 0
    1bf2:	90 e0       	ldi	r25, 0x00	; 0
    1bf4:	aa ec       	ldi	r26, 0xCA	; 202
    1bf6:	b2 e4       	ldi	r27, 0x42	; 66
    1bf8:	88 ab       	std	Y+48, r24	; 0x30
    1bfa:	99 ab       	std	Y+49, r25	; 0x31
    1bfc:	aa ab       	std	Y+50, r26	; 0x32
    1bfe:	bb ab       	std	Y+51, r27	; 0x33
	}

	// SFM10R1 temperature
	sfm10r1_init();
    1c00:	0e 94 b7 0a 	call	0x156e	; 0x156e <sfm10r1_init>
	counter = 0;
    1c04:	10 e0       	ldi	r17, 0x00	; 0
    1c06:	03 c0       	rjmp	.+6      	; 0x1c0e <measure_cycle+0x122>
	while (counter < 3 && !sfm10r1_ping()) {
		counter++;
    1c08:	1f 5f       	subi	r17, 0xFF	; 255
	}

	// SFM10R1 temperature
	sfm10r1_init();
	counter = 0;
	while (counter < 3 && !sfm10r1_ping()) {
    1c0a:	13 30       	cpi	r17, 0x03	; 3
    1c0c:	31 f0       	breq	.+12     	; 0x1c1a <measure_cycle+0x12e>
    1c0e:	0e 94 c1 0a 	call	0x1582	; 0x1582 <sfm10r1_ping>
    1c12:	88 23       	and	r24, r24
    1c14:	c9 f3       	breq	.-14     	; 0x1c08 <measure_cycle+0x11c>
		counter++;
	}
	if (counter == 3) {
    1c16:	13 30       	cpi	r17, 0x03	; 3
    1c18:	49 f4       	brne	.+18     	; 0x1c2c <measure_cycle+0x140>
		if (is_test_cycle) {
    1c1a:	2b 96       	adiw	r28, 0x0b	; 11
    1c1c:	9f ad       	ldd	r25, Y+63	; 0x3f
    1c1e:	2b 97       	sbiw	r28, 0x0b	; 11
    1c20:	99 23       	and	r25, r25
    1c22:	09 f4       	brne	.+2      	; 0x1c26 <measure_cycle+0x13a>
    1c24:	fc c1       	rjmp	.+1016   	; 0x201e <measure_cycle+0x532>
			enter_error_state(2);
    1c26:	82 e0       	ldi	r24, 0x02	; 2
    1c28:	0e 94 b9 0c 	call	0x1972	; 0x1972 <enter_error_state>
		}
		else {
			return; // unexpected error, cannot do anything
		}
	}
	if (!sfm10r1_get_temperature(&sfm10r1_temperature)) {
    1c2c:	ce 01       	movw	r24, r28
    1c2e:	c4 96       	adiw	r24, 0x34	; 52
    1c30:	0e 94 44 0b 	call	0x1688	; 0x1688 <sfm10r1_get_temperature>
    1c34:	81 11       	cpse	r24, r1
    1c36:	08 c0       	rjmp	.+16     	; 0x1c48 <measure_cycle+0x15c>
		sfm10r1_temperature = 101;
    1c38:	80 e0       	ldi	r24, 0x00	; 0
    1c3a:	90 e0       	ldi	r25, 0x00	; 0
    1c3c:	aa ec       	ldi	r26, 0xCA	; 202
    1c3e:	b2 e4       	ldi	r27, 0x42	; 66
    1c40:	8c ab       	std	Y+52, r24	; 0x34
    1c42:	9d ab       	std	Y+53, r25	; 0x35
    1c44:	ae ab       	std	Y+54, r26	; 0x36
    1c46:	bf ab       	std	Y+55, r27	; 0x37
	}
	
	/* process data */
	// put a 100C offset for each temperature value
	// and put data into a 12 bits format for each temperature value
	sht_temperature = sht_temperature + 100;
    1c48:	20 e0       	ldi	r18, 0x00	; 0
    1c4a:	30 e0       	ldi	r19, 0x00	; 0
    1c4c:	48 ec       	ldi	r20, 0xC8	; 200
    1c4e:	52 e4       	ldi	r21, 0x42	; 66
    1c50:	6c a5       	ldd	r22, Y+44	; 0x2c
    1c52:	7d a5       	ldd	r23, Y+45	; 0x2d
    1c54:	8e a5       	ldd	r24, Y+46	; 0x2e
    1c56:	9f a5       	ldd	r25, Y+47	; 0x2f
    1c58:	0e 94 4c 10 	call	0x2098	; 0x2098 <__addsf3>
    1c5c:	2b 01       	movw	r4, r22
    1c5e:	3c 01       	movw	r6, r24
	sht_temperature_processed[0] = (uint8_t) (int) sht_temperature;
    1c60:	0e 94 2f 11 	call	0x225e	; 0x225e <__fixsfsi>
    1c64:	b6 2e       	mov	r11, r22
	sht_temperature = 100*(sht_temperature - (float) sht_temperature_processed[0]);
    1c66:	70 e0       	ldi	r23, 0x00	; 0
    1c68:	80 e0       	ldi	r24, 0x00	; 0
    1c6a:	90 e0       	ldi	r25, 0x00	; 0
    1c6c:	0e 94 65 11 	call	0x22ca	; 0x22ca <__floatunsisf>
    1c70:	9b 01       	movw	r18, r22
    1c72:	ac 01       	movw	r20, r24
    1c74:	c3 01       	movw	r24, r6
    1c76:	b2 01       	movw	r22, r4
    1c78:	0e 94 4b 10 	call	0x2096	; 0x2096 <__subsf3>
    1c7c:	20 e0       	ldi	r18, 0x00	; 0
    1c7e:	30 e0       	ldi	r19, 0x00	; 0
    1c80:	48 ec       	ldi	r20, 0xC8	; 200
    1c82:	52 e4       	ldi	r21, 0x42	; 66
    1c84:	0e 94 1c 12 	call	0x2438	; 0x2438 <__mulsf3>
    1c88:	6c a7       	std	Y+44, r22	; 0x2c
    1c8a:	7d a7       	std	Y+45, r23	; 0x2d
    1c8c:	8e a7       	std	Y+46, r24	; 0x2e
    1c8e:	9f a7       	std	Y+47, r25	; 0x2f
	sht_temperature_processed[1] = 0x03 & ((uint8_t) ((int) sht_temperature / 25));
    1c90:	0e 94 2f 11 	call	0x225e	; 0x225e <__fixsfsi>
    1c94:	09 e1       	ldi	r16, 0x19	; 25
    1c96:	10 e0       	ldi	r17, 0x00	; 0
    1c98:	cb 01       	movw	r24, r22
    1c9a:	b8 01       	movw	r22, r16
    1c9c:	0e 94 a9 12 	call	0x2552	; 0x2552 <__divmodhi4>
    1ca0:	63 70       	andi	r22, 0x03	; 3
    1ca2:	86 2e       	mov	r8, r22
	
	ds18b20_temperature = ds18b20_temperature + 100;
    1ca4:	20 e0       	ldi	r18, 0x00	; 0
    1ca6:	30 e0       	ldi	r19, 0x00	; 0
    1ca8:	48 ec       	ldi	r20, 0xC8	; 200
    1caa:	52 e4       	ldi	r21, 0x42	; 66
    1cac:	68 a9       	ldd	r22, Y+48	; 0x30
    1cae:	79 a9       	ldd	r23, Y+49	; 0x31
    1cb0:	8a a9       	ldd	r24, Y+50	; 0x32
    1cb2:	9b a9       	ldd	r25, Y+51	; 0x33
    1cb4:	0e 94 4c 10 	call	0x2098	; 0x2098 <__addsf3>
    1cb8:	2b 01       	movw	r4, r22
    1cba:	3c 01       	movw	r6, r24
	ds18b20_temperature_processed[0] = (uint8_t) (int) ds18b20_temperature;
    1cbc:	0e 94 2f 11 	call	0x225e	; 0x225e <__fixsfsi>
    1cc0:	a6 2e       	mov	r10, r22
	ds18b20_temperature = 100*(ds18b20_temperature - (float) ds18b20_temperature_processed[0]);
    1cc2:	70 e0       	ldi	r23, 0x00	; 0
    1cc4:	80 e0       	ldi	r24, 0x00	; 0
    1cc6:	90 e0       	ldi	r25, 0x00	; 0
    1cc8:	0e 94 65 11 	call	0x22ca	; 0x22ca <__floatunsisf>
    1ccc:	9b 01       	movw	r18, r22
    1cce:	ac 01       	movw	r20, r24
    1cd0:	c3 01       	movw	r24, r6
    1cd2:	b2 01       	movw	r22, r4
    1cd4:	0e 94 4b 10 	call	0x2096	; 0x2096 <__subsf3>
    1cd8:	20 e0       	ldi	r18, 0x00	; 0
    1cda:	30 e0       	ldi	r19, 0x00	; 0
    1cdc:	48 ec       	ldi	r20, 0xC8	; 200
    1cde:	52 e4       	ldi	r21, 0x42	; 66
    1ce0:	0e 94 1c 12 	call	0x2438	; 0x2438 <__mulsf3>
    1ce4:	68 ab       	std	Y+48, r22	; 0x30
    1ce6:	79 ab       	std	Y+49, r23	; 0x31
    1ce8:	8a ab       	std	Y+50, r24	; 0x32
    1cea:	9b ab       	std	Y+51, r25	; 0x33
	ds18b20_temperature_processed[1] = 0x03 & ((uint8_t) ((int) ds18b20_temperature / 25));
    1cec:	0e 94 2f 11 	call	0x225e	; 0x225e <__fixsfsi>
    1cf0:	cb 01       	movw	r24, r22
    1cf2:	b8 01       	movw	r22, r16
    1cf4:	0e 94 a9 12 	call	0x2552	; 0x2552 <__divmodhi4>
    1cf8:	63 70       	andi	r22, 0x03	; 3
    1cfa:	36 2e       	mov	r3, r22

	sfm10r1_temperature = sfm10r1_temperature + 100;
    1cfc:	20 e0       	ldi	r18, 0x00	; 0
    1cfe:	30 e0       	ldi	r19, 0x00	; 0
    1d00:	48 ec       	ldi	r20, 0xC8	; 200
    1d02:	52 e4       	ldi	r21, 0x42	; 66
    1d04:	6c a9       	ldd	r22, Y+52	; 0x34
    1d06:	7d a9       	ldd	r23, Y+53	; 0x35
    1d08:	8e a9       	ldd	r24, Y+54	; 0x36
    1d0a:	9f a9       	ldd	r25, Y+55	; 0x37
    1d0c:	0e 94 4c 10 	call	0x2098	; 0x2098 <__addsf3>
    1d10:	2b 01       	movw	r4, r22
    1d12:	3c 01       	movw	r6, r24
	sfm10r1_temperature_processed[0] = (uint8_t) (int) sfm10r1_temperature;
    1d14:	0e 94 2f 11 	call	0x225e	; 0x225e <__fixsfsi>
    1d18:	96 2e       	mov	r9, r22
	sfm10r1_temperature = 100*(sfm10r1_temperature - (float) sfm10r1_temperature_processed[0]);
    1d1a:	70 e0       	ldi	r23, 0x00	; 0
    1d1c:	80 e0       	ldi	r24, 0x00	; 0
    1d1e:	90 e0       	ldi	r25, 0x00	; 0
    1d20:	0e 94 65 11 	call	0x22ca	; 0x22ca <__floatunsisf>
    1d24:	9b 01       	movw	r18, r22
    1d26:	ac 01       	movw	r20, r24
    1d28:	c3 01       	movw	r24, r6
    1d2a:	b2 01       	movw	r22, r4
    1d2c:	0e 94 4b 10 	call	0x2096	; 0x2096 <__subsf3>
    1d30:	20 e0       	ldi	r18, 0x00	; 0
    1d32:	30 e0       	ldi	r19, 0x00	; 0
    1d34:	48 ec       	ldi	r20, 0xC8	; 200
    1d36:	52 e4       	ldi	r21, 0x42	; 66
    1d38:	0e 94 1c 12 	call	0x2438	; 0x2438 <__mulsf3>
    1d3c:	6c ab       	std	Y+52, r22	; 0x34
    1d3e:	7d ab       	std	Y+53, r23	; 0x35
    1d40:	8e ab       	std	Y+54, r24	; 0x36
    1d42:	9f ab       	std	Y+55, r25	; 0x37
	sfm10r1_temperature_processed[1] = 0x03 & ((uint8_t) ((int) sfm10r1_temperature / 25));
    1d44:	0e 94 2f 11 	call	0x225e	; 0x225e <__fixsfsi>
    1d48:	cb 01       	movw	r24, r22
    1d4a:	b8 01       	movw	r22, r16
    1d4c:	0e 94 a9 12 	call	0x2552	; 0x2552 <__divmodhi4>
    1d50:	63 70       	andi	r22, 0x03	; 3
    1d52:	66 2e       	mov	r6, r22
	
	// humidity is int between 0 and 99
	sht_humidity_processed = (uint8_t) sht_humidity;
    1d54:	68 a5       	ldd	r22, Y+40	; 0x28
    1d56:	79 a5       	ldd	r23, Y+41	; 0x29
    1d58:	8a a5       	ldd	r24, Y+42	; 0x2a
    1d5a:	9b a5       	ldd	r25, Y+43	; 0x2b
    1d5c:	0e 94 36 11 	call	0x226c	; 0x226c <__fixunssfsi>
    1d60:	76 2e       	mov	r7, r22

	// battery voltage
	if (battery_voltage < 2.5) {
    1d62:	20 e0       	ldi	r18, 0x00	; 0
    1d64:	30 e0       	ldi	r19, 0x00	; 0
    1d66:	40 e2       	ldi	r20, 0x20	; 32
    1d68:	50 e4       	ldi	r21, 0x40	; 64
    1d6a:	c7 01       	movw	r24, r14
    1d6c:	b6 01       	movw	r22, r12
    1d6e:	0e 94 b8 10 	call	0x2170	; 0x2170 <__cmpsf2>
    1d72:	88 23       	and	r24, r24
    1d74:	9c f0       	brlt	.+38     	; 0x1d9c <measure_cycle+0x2b0>
		battery_voltage = 2.5;
	}
	else if (battery_voltage > 4.5) {
    1d76:	20 e0       	ldi	r18, 0x00	; 0
    1d78:	30 e0       	ldi	r19, 0x00	; 0
    1d7a:	40 e9       	ldi	r20, 0x90	; 144
    1d7c:	50 e4       	ldi	r21, 0x40	; 64
    1d7e:	c7 01       	movw	r24, r14
    1d80:	b6 01       	movw	r22, r12
    1d82:	0e 94 17 12 	call	0x242e	; 0x242e <__gesf2>
    1d86:	18 16       	cp	r1, r24
    1d88:	74 f0       	brlt	.+28     	; 0x1da6 <measure_cycle+0x2ba>
		battery_voltage = 4.5;
	}
	else {
		battery_voltage = battery_voltage - 2.5;
    1d8a:	20 e0       	ldi	r18, 0x00	; 0
    1d8c:	30 e0       	ldi	r19, 0x00	; 0
    1d8e:	40 e2       	ldi	r20, 0x20	; 32
    1d90:	50 e4       	ldi	r21, 0x40	; 64
    1d92:	c7 01       	movw	r24, r14
    1d94:	b6 01       	movw	r22, r12
    1d96:	0e 94 4b 10 	call	0x2096	; 0x2096 <__subsf3>
    1d9a:	09 c0       	rjmp	.+18     	; 0x1dae <measure_cycle+0x2c2>
	// humidity is int between 0 and 99
	sht_humidity_processed = (uint8_t) sht_humidity;

	// battery voltage
	if (battery_voltage < 2.5) {
		battery_voltage = 2.5;
    1d9c:	60 e0       	ldi	r22, 0x00	; 0
    1d9e:	70 e0       	ldi	r23, 0x00	; 0
    1da0:	80 e2       	ldi	r24, 0x20	; 32
    1da2:	90 e4       	ldi	r25, 0x40	; 64
    1da4:	04 c0       	rjmp	.+8      	; 0x1dae <measure_cycle+0x2c2>
	}
	else if (battery_voltage > 4.5) {
		battery_voltage = 4.5;
    1da6:	60 e0       	ldi	r22, 0x00	; 0
    1da8:	70 e0       	ldi	r23, 0x00	; 0
    1daa:	80 e9       	ldi	r24, 0x90	; 144
    1dac:	90 e4       	ldi	r25, 0x40	; 64
	}
	else {
		battery_voltage = battery_voltage - 2.5;
	}
	battery_voltage_processed[0] = (((uint16_t) ((float) 512*battery_voltage)) >> 2);
    1dae:	20 e0       	ldi	r18, 0x00	; 0
    1db0:	30 e0       	ldi	r19, 0x00	; 0
    1db2:	40 e0       	ldi	r20, 0x00	; 0
    1db4:	54 e4       	ldi	r21, 0x44	; 68
    1db6:	0e 94 1c 12 	call	0x2438	; 0x2438 <__mulsf3>
    1dba:	0e 94 36 11 	call	0x226c	; 0x226c <__fixunssfsi>

	// solar intensity
	solar_intensity_processed = (uint8_t) (int) (float) 19*solar_intensity;

	/* create the 12 bytes Sigfox message */
	message[0] = 0x01; // header code for this kind of message
    1dbe:	21 e0       	ldi	r18, 0x01	; 1
    1dc0:	29 83       	std	Y+1, r18	; 0x01
	message[1] = battery_voltage_processed[0]; // battery voltage
    1dc2:	9b 01       	movw	r18, r22
    1dc4:	36 95       	lsr	r19
    1dc6:	27 95       	ror	r18
    1dc8:	36 95       	lsr	r19
    1dca:	27 95       	ror	r18
    1dcc:	2a 83       	std	Y+2, r18	; 0x02
	message[2] = (battery_voltage_processed[1] << 6) | solar_intensity_processed; // battery voltage + solar  intensity
    1dce:	63 70       	andi	r22, 0x03	; 3
    1dd0:	e0 e4       	ldi	r30, 0x40	; 64
    1dd2:	6e 9f       	mul	r22, r30
    1dd4:	80 01       	movw	r16, r0
    1dd6:	11 24       	eor	r1, r1
    1dd8:	20 e0       	ldi	r18, 0x00	; 0
    1dda:	30 e0       	ldi	r19, 0x00	; 0
    1ddc:	48 e9       	ldi	r20, 0x98	; 152
    1dde:	51 e4       	ldi	r21, 0x41	; 65
    1de0:	6a ad       	ldd	r22, Y+58	; 0x3a
    1de2:	7b ad       	ldd	r23, Y+59	; 0x3b
    1de4:	8c ad       	ldd	r24, Y+60	; 0x3c
    1de6:	9d ad       	ldd	r25, Y+61	; 0x3d
    1de8:	0e 94 1c 12 	call	0x2438	; 0x2438 <__mulsf3>
    1dec:	0e 94 36 11 	call	0x226c	; 0x226c <__fixunssfsi>
    1df0:	06 2b       	or	r16, r22
    1df2:	0b 83       	std	Y+3, r16	; 0x03
	message[3] = raw_weight[0];
    1df4:	8d a1       	ldd	r24, Y+37	; 0x25
    1df6:	8c 83       	std	Y+4, r24	; 0x04
	message[4] = raw_weight[1];
    1df8:	8e a1       	ldd	r24, Y+38	; 0x26
    1dfa:	8d 83       	std	Y+5, r24	; 0x05
	message[5] = raw_weight[2];
    1dfc:	8f a1       	ldd	r24, Y+39	; 0x27
    1dfe:	8e 83       	std	Y+6, r24	; 0x06
	message[6] = sht_humidity_processed; // humidity
    1e00:	7f 82       	std	Y+7, r7	; 0x07
	message[7] = sht_temperature_processed[0]; // SHT temperature
    1e02:	b8 86       	std	Y+8, r11	; 0x08
	message[8] = ds18b20_temperature_processed[0]; // DS18B20 temperature
    1e04:	a9 86       	std	Y+9, r10	; 0x09
	message[9] = sfm10r1_temperature_processed[0]; // SFM10R1 temperature
    1e06:	9a 86       	std	Y+10, r9	; 0x0a
	message[10] = (sht_temperature_processed[1] << 4) | (ds18b20_temperature_processed[1] << 2) | sfm10r1_temperature_processed[1]; // SHT + DS18B20 + SFM10R1 LSBs temperatures
    1e08:	f0 e1       	ldi	r31, 0x10	; 16
    1e0a:	8f 9e       	mul	r8, r31
    1e0c:	40 01       	movw	r8, r0
    1e0e:	11 24       	eor	r1, r1
    1e10:	33 0c       	add	r3, r3
    1e12:	33 0c       	add	r3, r3
    1e14:	83 28       	or	r8, r3
    1e16:	86 28       	or	r8, r6
    1e18:	8b 86       	std	Y+11, r8	; 0x0b
	message[11] = 0x00; // dummy in this case
    1e1a:	1c 86       	std	Y+12, r1	; 0x0c
    1e1c:	9e 01       	movw	r18, r28
    1e1e:	2f 5f       	subi	r18, 0xFF	; 255
    1e20:	3f 4f       	sbci	r19, 0xFF	; 255
    1e22:	2a 96       	adiw	r28, 0x0a	; 10
    1e24:	3f af       	std	Y+63, r19	; 0x3f
    1e26:	2e af       	std	Y+62, r18	; 0x3e
    1e28:	2a 97       	sbiw	r28, 0x0a	; 10
    1e2a:	24 5f       	subi	r18, 0xF4	; 244
    1e2c:	3f 4f       	sbci	r19, 0xFF	; 255
    1e2e:	ae 01       	movw	r20, r28
    1e30:	4b 5d       	subi	r20, 0xDB	; 219
    1e32:	5f 4f       	sbci	r21, 0xFF	; 255
    1e34:	59 af       	std	Y+57, r21	; 0x39
    1e36:	48 af       	std	Y+56, r20	; 0x38
    1e38:	b0 c0       	rjmp	.+352    	; 0x1f9a <measure_cycle+0x4ae>

	/* convert message from HEX to ASCII HEX (0x1A -> '1' and 'A')*/
	for (counter = 0; counter < 12; counter++) {
		for (counter2 = 0; counter2 < 2; counter2++) {
			switch ( (message[counter] >> (4*(1-counter2))) & 0x0f ) {
    1e3a:	28 96       	adiw	r28, 0x08	; 8
    1e3c:	ee ad       	ldd	r30, Y+62	; 0x3e
    1e3e:	ff ad       	ldd	r31, Y+63	; 0x3f
    1e40:	28 97       	sbiw	r28, 0x08	; 8
    1e42:	08 2e       	mov	r0, r24
    1e44:	02 c0       	rjmp	.+4      	; 0x1e4a <measure_cycle+0x35e>
    1e46:	f5 95       	asr	r31
    1e48:	e7 95       	ror	r30
    1e4a:	0a 94       	dec	r0
    1e4c:	e2 f7       	brpl	.-8      	; 0x1e46 <measure_cycle+0x35a>
    1e4e:	ef 70       	andi	r30, 0x0F	; 15
    1e50:	ff 27       	eor	r31, r31
    1e52:	e1 57       	subi	r30, 0x71	; 113
    1e54:	ff 4f       	sbci	r31, 0xFF	; 255
    1e56:	0c 94 fe 12 	jmp	0x25fc	; 0x25fc <__tablejump2__>
				case 0x00:
					message_ascii[2*counter + counter2] = '0';
    1e5a:	20 e3       	ldi	r18, 0x30	; 48
    1e5c:	ee ad       	ldd	r30, Y+62	; 0x3e
    1e5e:	ff ad       	ldd	r31, Y+63	; 0x3f
    1e60:	20 83       	st	Z, r18
					break;
    1e62:	44 c0       	rjmp	.+136    	; 0x1eec <measure_cycle+0x400>
				case 0x01:
					message_ascii[2*counter + counter2] = '1';
    1e64:	21 e3       	ldi	r18, 0x31	; 49
    1e66:	ea ad       	ldd	r30, Y+58	; 0x3a
    1e68:	fb ad       	ldd	r31, Y+59	; 0x3b
    1e6a:	20 83       	st	Z, r18
					break;
    1e6c:	3f c0       	rjmp	.+126    	; 0x1eec <measure_cycle+0x400>
				case 0x02:
					message_ascii[2*counter + counter2] = '2';
    1e6e:	22 e3       	ldi	r18, 0x32	; 50
    1e70:	22 96       	adiw	r28, 0x02	; 2
    1e72:	ee ad       	ldd	r30, Y+62	; 0x3e
    1e74:	ff ad       	ldd	r31, Y+63	; 0x3f
    1e76:	22 97       	sbiw	r28, 0x02	; 2
    1e78:	20 83       	st	Z, r18
					break;
    1e7a:	38 c0       	rjmp	.+112    	; 0x1eec <measure_cycle+0x400>
				case 0x03:
					message_ascii[2*counter + counter2] = '3';
    1e7c:	23 e3       	ldi	r18, 0x33	; 51
    1e7e:	24 96       	adiw	r28, 0x04	; 4
    1e80:	ee ad       	ldd	r30, Y+62	; 0x3e
    1e82:	ff ad       	ldd	r31, Y+63	; 0x3f
    1e84:	24 97       	sbiw	r28, 0x04	; 4
    1e86:	20 83       	st	Z, r18
					break;
    1e88:	31 c0       	rjmp	.+98     	; 0x1eec <measure_cycle+0x400>
				case 0x04:
					message_ascii[2*counter + counter2] = '4';
    1e8a:	24 e3       	ldi	r18, 0x34	; 52
    1e8c:	26 96       	adiw	r28, 0x06	; 6
    1e8e:	ee ad       	ldd	r30, Y+62	; 0x3e
    1e90:	ff ad       	ldd	r31, Y+63	; 0x3f
    1e92:	26 97       	sbiw	r28, 0x06	; 6
    1e94:	20 83       	st	Z, r18
					break;
    1e96:	2a c0       	rjmp	.+84     	; 0x1eec <measure_cycle+0x400>
				case 0x05:
					message_ascii[2*counter + counter2] = '5';
    1e98:	25 e3       	ldi	r18, 0x35	; 53
    1e9a:	f1 01       	movw	r30, r2
    1e9c:	20 83       	st	Z, r18
					break;
    1e9e:	26 c0       	rjmp	.+76     	; 0x1eec <measure_cycle+0x400>
				case 0x06:
					message_ascii[2*counter + counter2] = '6';
    1ea0:	26 e3       	ldi	r18, 0x36	; 54
    1ea2:	f2 01       	movw	r30, r4
    1ea4:	20 83       	st	Z, r18
					break;
    1ea6:	22 c0       	rjmp	.+68     	; 0x1eec <measure_cycle+0x400>
				case 0x07:
					message_ascii[2*counter + counter2] = '7';
    1ea8:	27 e3       	ldi	r18, 0x37	; 55
    1eaa:	f3 01       	movw	r30, r6
    1eac:	20 83       	st	Z, r18
					break;
    1eae:	1e c0       	rjmp	.+60     	; 0x1eec <measure_cycle+0x400>
				case 0x08:
					message_ascii[2*counter + counter2] = '8';
    1eb0:	28 e3       	ldi	r18, 0x38	; 56
    1eb2:	f4 01       	movw	r30, r8
    1eb4:	20 83       	st	Z, r18
					break;
    1eb6:	1a c0       	rjmp	.+52     	; 0x1eec <measure_cycle+0x400>
				case 0x09:
					message_ascii[2*counter + counter2] = '9';
    1eb8:	39 e3       	ldi	r19, 0x39	; 57
    1eba:	3c 93       	st	X, r19
					break;
    1ebc:	17 c0       	rjmp	.+46     	; 0x1eec <measure_cycle+0x400>
				case 0x0a:
					message_ascii[2*counter + counter2] = 'A';
    1ebe:	21 e4       	ldi	r18, 0x41	; 65
    1ec0:	fa 01       	movw	r30, r20
    1ec2:	20 83       	st	Z, r18
					break;
    1ec4:	13 c0       	rjmp	.+38     	; 0x1eec <measure_cycle+0x400>
				case 0x0b:
					message_ascii[2*counter + counter2] = 'B';
    1ec6:	22 e4       	ldi	r18, 0x42	; 66
    1ec8:	fb 01       	movw	r30, r22
    1eca:	20 83       	st	Z, r18
					break;
    1ecc:	0f c0       	rjmp	.+30     	; 0x1eec <measure_cycle+0x400>
				case 0x0c:
					message_ascii[2*counter + counter2] = 'C';
    1ece:	23 e4       	ldi	r18, 0x43	; 67
    1ed0:	f8 01       	movw	r30, r16
    1ed2:	20 83       	st	Z, r18
					break;
    1ed4:	0b c0       	rjmp	.+22     	; 0x1eec <measure_cycle+0x400>
				case 0x0d:
					message_ascii[2*counter + counter2] = 'D';
    1ed6:	24 e4       	ldi	r18, 0x44	; 68
    1ed8:	f7 01       	movw	r30, r14
    1eda:	20 83       	st	Z, r18
					break;
    1edc:	07 c0       	rjmp	.+14     	; 0x1eec <measure_cycle+0x400>
				case 0x0e:
					message_ascii[2*counter + counter2] = 'E';
    1ede:	25 e4       	ldi	r18, 0x45	; 69
    1ee0:	f6 01       	movw	r30, r12
    1ee2:	20 83       	st	Z, r18
					break;
    1ee4:	03 c0       	rjmp	.+6      	; 0x1eec <measure_cycle+0x400>
				case 0x0f:
					message_ascii[2*counter + counter2] = 'F';
    1ee6:	26 e4       	ldi	r18, 0x46	; 70
    1ee8:	f5 01       	movw	r30, r10
    1eea:	20 83       	st	Z, r18
    1eec:	04 97       	sbiw	r24, 0x04	; 4
    1eee:	2e ad       	ldd	r18, Y+62	; 0x3e
    1ef0:	3f ad       	ldd	r19, Y+63	; 0x3f
    1ef2:	2f 5f       	subi	r18, 0xFF	; 255
    1ef4:	3f 4f       	sbci	r19, 0xFF	; 255
    1ef6:	3f af       	std	Y+63, r19	; 0x3f
    1ef8:	2e af       	std	Y+62, r18	; 0x3e
    1efa:	2a ad       	ldd	r18, Y+58	; 0x3a
    1efc:	3b ad       	ldd	r19, Y+59	; 0x3b
    1efe:	2f 5f       	subi	r18, 0xFF	; 255
    1f00:	3f 4f       	sbci	r19, 0xFF	; 255
    1f02:	3b af       	std	Y+59, r19	; 0x3b
    1f04:	2a af       	std	Y+58, r18	; 0x3a
    1f06:	22 96       	adiw	r28, 0x02	; 2
    1f08:	2e ad       	ldd	r18, Y+62	; 0x3e
    1f0a:	3f ad       	ldd	r19, Y+63	; 0x3f
    1f0c:	22 97       	sbiw	r28, 0x02	; 2
    1f0e:	2f 5f       	subi	r18, 0xFF	; 255
    1f10:	3f 4f       	sbci	r19, 0xFF	; 255
    1f12:	22 96       	adiw	r28, 0x02	; 2
    1f14:	3f af       	std	Y+63, r19	; 0x3f
    1f16:	2e af       	std	Y+62, r18	; 0x3e
    1f18:	22 97       	sbiw	r28, 0x02	; 2
    1f1a:	24 96       	adiw	r28, 0x04	; 4
    1f1c:	2e ad       	ldd	r18, Y+62	; 0x3e
    1f1e:	3f ad       	ldd	r19, Y+63	; 0x3f
    1f20:	24 97       	sbiw	r28, 0x04	; 4
    1f22:	2f 5f       	subi	r18, 0xFF	; 255
    1f24:	3f 4f       	sbci	r19, 0xFF	; 255
    1f26:	24 96       	adiw	r28, 0x04	; 4
    1f28:	3f af       	std	Y+63, r19	; 0x3f
    1f2a:	2e af       	std	Y+62, r18	; 0x3e
    1f2c:	24 97       	sbiw	r28, 0x04	; 4
    1f2e:	26 96       	adiw	r28, 0x06	; 6
    1f30:	2e ad       	ldd	r18, Y+62	; 0x3e
    1f32:	3f ad       	ldd	r19, Y+63	; 0x3f
    1f34:	26 97       	sbiw	r28, 0x06	; 6
    1f36:	2f 5f       	subi	r18, 0xFF	; 255
    1f38:	3f 4f       	sbci	r19, 0xFF	; 255
    1f3a:	26 96       	adiw	r28, 0x06	; 6
    1f3c:	3f af       	std	Y+63, r19	; 0x3f
    1f3e:	2e af       	std	Y+62, r18	; 0x3e
    1f40:	26 97       	sbiw	r28, 0x06	; 6
    1f42:	3f ef       	ldi	r19, 0xFF	; 255
    1f44:	23 1a       	sub	r2, r19
    1f46:	33 0a       	sbc	r3, r19
    1f48:	ef ef       	ldi	r30, 0xFF	; 255
    1f4a:	4e 1a       	sub	r4, r30
    1f4c:	5e 0a       	sbc	r5, r30
    1f4e:	ff ef       	ldi	r31, 0xFF	; 255
    1f50:	6f 1a       	sub	r6, r31
    1f52:	7f 0a       	sbc	r7, r31
    1f54:	2f ef       	ldi	r18, 0xFF	; 255
    1f56:	82 1a       	sub	r8, r18
    1f58:	92 0a       	sbc	r9, r18
    1f5a:	11 96       	adiw	r26, 0x01	; 1
    1f5c:	4f 5f       	subi	r20, 0xFF	; 255
    1f5e:	5f 4f       	sbci	r21, 0xFF	; 255
    1f60:	6f 5f       	subi	r22, 0xFF	; 255
    1f62:	7f 4f       	sbci	r23, 0xFF	; 255
    1f64:	0f 5f       	subi	r16, 0xFF	; 255
    1f66:	1f 4f       	sbci	r17, 0xFF	; 255
    1f68:	3f ef       	ldi	r19, 0xFF	; 255
    1f6a:	e3 1a       	sub	r14, r19
    1f6c:	f3 0a       	sbc	r15, r19
    1f6e:	ef ef       	ldi	r30, 0xFF	; 255
    1f70:	ce 1a       	sub	r12, r30
    1f72:	de 0a       	sbc	r13, r30
    1f74:	ff ef       	ldi	r31, 0xFF	; 255
    1f76:	af 1a       	sub	r10, r31
    1f78:	bf 0a       	sbc	r11, r31
	message[10] = (sht_temperature_processed[1] << 4) | (ds18b20_temperature_processed[1] << 2) | sfm10r1_temperature_processed[1]; // SHT + DS18B20 + SFM10R1 LSBs temperatures
	message[11] = 0x00; // dummy in this case

	/* convert message from HEX to ASCII HEX (0x1A -> '1' and 'A')*/
	for (counter = 0; counter < 12; counter++) {
		for (counter2 = 0; counter2 < 2; counter2++) {
    1f7a:	8c 3f       	cpi	r24, 0xFC	; 252
    1f7c:	2f ef       	ldi	r18, 0xFF	; 255
    1f7e:	92 07       	cpc	r25, r18
    1f80:	09 f0       	breq	.+2      	; 0x1f84 <measure_cycle+0x498>
    1f82:	5b cf       	rjmp	.-330    	; 0x1e3a <measure_cycle+0x34e>
    1f84:	2d 96       	adiw	r28, 0x0d	; 13
    1f86:	2e ad       	ldd	r18, Y+62	; 0x3e
    1f88:	3f ad       	ldd	r19, Y+63	; 0x3f
    1f8a:	2d 97       	sbiw	r28, 0x0d	; 13
    1f8c:	2e 5f       	subi	r18, 0xFE	; 254
    1f8e:	3f 4f       	sbci	r19, 0xFF	; 255
	message[9] = sfm10r1_temperature_processed[0]; // SFM10R1 temperature
	message[10] = (sht_temperature_processed[1] << 4) | (ds18b20_temperature_processed[1] << 2) | sfm10r1_temperature_processed[1]; // SHT + DS18B20 + SFM10R1 LSBs temperatures
	message[11] = 0x00; // dummy in this case

	/* convert message from HEX to ASCII HEX (0x1A -> '1' and 'A')*/
	for (counter = 0; counter < 12; counter++) {
    1f90:	48 ad       	ldd	r20, Y+56	; 0x38
    1f92:	59 ad       	ldd	r21, Y+57	; 0x39
    1f94:	42 17       	cp	r20, r18
    1f96:	53 07       	cpc	r21, r19
    1f98:	89 f1       	breq	.+98     	; 0x1ffc <measure_cycle+0x510>
		for (counter2 = 0; counter2 < 2; counter2++) {
			switch ( (message[counter] >> (4*(1-counter2))) & 0x0f ) {
    1f9a:	2a 96       	adiw	r28, 0x0a	; 10
    1f9c:	ee ad       	ldd	r30, Y+62	; 0x3e
    1f9e:	ff ad       	ldd	r31, Y+63	; 0x3f
    1fa0:	2a 97       	sbiw	r28, 0x0a	; 10
    1fa2:	81 91       	ld	r24, Z+
    1fa4:	2a 96       	adiw	r28, 0x0a	; 10
    1fa6:	ff af       	std	Y+63, r31	; 0x3f
    1fa8:	ee af       	std	Y+62, r30	; 0x3e
    1faa:	2a 97       	sbiw	r28, 0x0a	; 10
    1fac:	48 2f       	mov	r20, r24
    1fae:	50 e0       	ldi	r21, 0x00	; 0
    1fb0:	28 96       	adiw	r28, 0x08	; 8
    1fb2:	5f af       	std	Y+63, r21	; 0x3f
    1fb4:	4e af       	std	Y+62, r20	; 0x3e
    1fb6:	28 97       	sbiw	r28, 0x08	; 8
    1fb8:	59 01       	movw	r10, r18
    1fba:	69 01       	movw	r12, r18
    1fbc:	79 01       	movw	r14, r18
    1fbe:	89 01       	movw	r16, r18
    1fc0:	b9 01       	movw	r22, r18
    1fc2:	a9 01       	movw	r20, r18
    1fc4:	d9 01       	movw	r26, r18
    1fc6:	49 01       	movw	r8, r18
    1fc8:	39 01       	movw	r6, r18
    1fca:	29 01       	movw	r4, r18
    1fcc:	19 01       	movw	r2, r18
    1fce:	26 96       	adiw	r28, 0x06	; 6
    1fd0:	3f af       	std	Y+63, r19	; 0x3f
    1fd2:	2e af       	std	Y+62, r18	; 0x3e
    1fd4:	26 97       	sbiw	r28, 0x06	; 6
    1fd6:	24 96       	adiw	r28, 0x04	; 4
    1fd8:	3f af       	std	Y+63, r19	; 0x3f
    1fda:	2e af       	std	Y+62, r18	; 0x3e
    1fdc:	24 97       	sbiw	r28, 0x04	; 4
    1fde:	22 96       	adiw	r28, 0x02	; 2
    1fe0:	3f af       	std	Y+63, r19	; 0x3f
    1fe2:	2e af       	std	Y+62, r18	; 0x3e
    1fe4:	22 97       	sbiw	r28, 0x02	; 2
    1fe6:	3b af       	std	Y+59, r19	; 0x3b
    1fe8:	2a af       	std	Y+58, r18	; 0x3a
    1fea:	3f af       	std	Y+63, r19	; 0x3f
    1fec:	2e af       	std	Y+62, r18	; 0x3e
    1fee:	84 e0       	ldi	r24, 0x04	; 4
    1ff0:	90 e0       	ldi	r25, 0x00	; 0
    1ff2:	2d 96       	adiw	r28, 0x0d	; 13
    1ff4:	3f af       	std	Y+63, r19	; 0x3f
    1ff6:	2e af       	std	Y+62, r18	; 0x3e
    1ff8:	2d 97       	sbiw	r28, 0x0d	; 13
    1ffa:	1f cf       	rjmp	.-450    	; 0x1e3a <measure_cycle+0x34e>
			}
		}
	}

	/* send the 12 bytes Sigfox message */
	if (!sfm10r1_send_data(message_ascii, 24)) {
    1ffc:	68 e1       	ldi	r22, 0x18	; 24
    1ffe:	ce 01       	movw	r24, r28
    2000:	0d 96       	adiw	r24, 0x0d	; 13
    2002:	0e 94 f0 0a 	call	0x15e0	; 0x15e0 <sfm10r1_send_data>
    2006:	81 11       	cpse	r24, r1
    2008:	08 c0       	rjmp	.+16     	; 0x201a <measure_cycle+0x52e>
		if (is_test_cycle) {
    200a:	2b 96       	adiw	r28, 0x0b	; 11
    200c:	5f ad       	ldd	r21, Y+63	; 0x3f
    200e:	2b 97       	sbiw	r28, 0x0b	; 11
    2010:	55 23       	and	r21, r21
    2012:	29 f0       	breq	.+10     	; 0x201e <measure_cycle+0x532>
			enter_error_state(2);
    2014:	82 e0       	ldi	r24, 0x02	; 2
    2016:	0e 94 b9 0c 	call	0x1972	; 0x1972 <enter_error_state>
		}
		else {
			return;
		}
	}
	sfm10r1_end();
    201a:	0e 94 bc 0a 	call	0x1578	; 0x1578 <sfm10r1_end>
}
    201e:	c4 5b       	subi	r28, 0xB4	; 180
    2020:	df 4f       	sbci	r29, 0xFF	; 255
    2022:	0f b6       	in	r0, 0x3f	; 63
    2024:	f8 94       	cli
    2026:	de bf       	out	0x3e, r29	; 62
    2028:	0f be       	out	0x3f, r0	; 63
    202a:	cd bf       	out	0x3d, r28	; 61
    202c:	df 91       	pop	r29
    202e:	cf 91       	pop	r28
    2030:	1f 91       	pop	r17
    2032:	0f 91       	pop	r16
    2034:	ff 90       	pop	r15
    2036:	ef 90       	pop	r14
    2038:	df 90       	pop	r13
    203a:	cf 90       	pop	r12
    203c:	bf 90       	pop	r11
    203e:	af 90       	pop	r10
    2040:	9f 90       	pop	r9
    2042:	8f 90       	pop	r8
    2044:	7f 90       	pop	r7
    2046:	6f 90       	pop	r6
    2048:	5f 90       	pop	r5
    204a:	4f 90       	pop	r4
    204c:	3f 90       	pop	r3
    204e:	2f 90       	pop	r2
    2050:	08 95       	ret

00002052 <clear_hourly_flags>:

void clear_hourly_flags() {
    2052:	cf 93       	push	r28
    2054:	df 93       	push	r29
    2056:	1f 92       	push	r1
    2058:	cd b7       	in	r28, 0x3d	; 61
    205a:	de b7       	in	r29, 0x3e	; 62
	/* clear RTC alarm flags and MCU wake up interrupt flag */
	uint8_t cleared_ds3231_alarms;

	// RTC alarm flags
	i2c_init(); // start i2c bus
    205c:	0e 94 8e 03 	call	0x71c	; 0x71c <i2c_init>

	ds3231_clear_alarm_flags(&cleared_ds3231_alarms); // clear flags
    2060:	ce 01       	movw	r24, r28
    2062:	01 96       	adiw	r24, 0x01	; 1
    2064:	0e 94 26 07 	call	0xe4c	; 0xe4c <ds3231_clear_alarm_flags>
    2068:	10 92 bc 00 	sts	0x00BC, r1	; 0x8000bc <__DATA_REGION_ORIGIN__+0x5c>

	i2c_end(); // stop i2c bus
}
    206c:	0f 90       	pop	r0
    206e:	df 91       	pop	r29
    2070:	cf 91       	pop	r28
    2072:	08 95       	ret

00002074 <main>:
	// for debug purpose only
	/*serial_init(9600);
	char data[8] = {'S', 'T', 'A', 'R', 'T', '\r', '\n', '\0'};
	serial_send(data);*/
	
	init(); // launch and setup sequence
    2074:	0e 94 e0 0c 	call	0x19c0	; 0x19c0 <init>
	
	measure_cycle(1); // do a test cycle and send data
    2078:	81 e0       	ldi	r24, 0x01	; 1
    207a:	0e 94 76 0d 	call	0x1aec	; 0x1aec <measure_cycle>

	while(1) {
		// switch OFF peripherals before entering in sleep
		power_off_external_peripherals();
    207e:	0e 94 30 01 	call	0x260	; 0x260 <power_off_external_peripherals>
		
		// enter in sleep mode, will wake up by RTC alarm interrupt
		enter_sleep();
    2082:	0e 94 a9 0c 	call	0x1952	; 0x1952 <enter_sleep>
		
		// switch ON peripherals
		power_on_external_peripherals();
    2086:	0e 94 24 01 	call	0x248	; 0x248 <power_on_external_peripherals>
		
		// clear hourly flags
		clear_hourly_flags();
    208a:	0e 94 29 10 	call	0x2052	; 0x2052 <clear_hourly_flags>
		
		// measure cycle and data transmit
		measure_cycle(0);
    208e:	80 e0       	ldi	r24, 0x00	; 0
    2090:	0e 94 76 0d 	call	0x1aec	; 0x1aec <measure_cycle>
    2094:	f4 cf       	rjmp	.-24     	; 0x207e <main+0xa>

00002096 <__subsf3>:
    2096:	50 58       	subi	r21, 0x80	; 128

00002098 <__addsf3>:
    2098:	bb 27       	eor	r27, r27
    209a:	aa 27       	eor	r26, r26
    209c:	0e 94 63 10 	call	0x20c6	; 0x20c6 <__addsf3x>
    20a0:	0c 94 dd 11 	jmp	0x23ba	; 0x23ba <__fp_round>
    20a4:	0e 94 cf 11 	call	0x239e	; 0x239e <__fp_pscA>
    20a8:	38 f0       	brcs	.+14     	; 0x20b8 <__addsf3+0x20>
    20aa:	0e 94 d6 11 	call	0x23ac	; 0x23ac <__fp_pscB>
    20ae:	20 f0       	brcs	.+8      	; 0x20b8 <__addsf3+0x20>
    20b0:	39 f4       	brne	.+14     	; 0x20c0 <__addsf3+0x28>
    20b2:	9f 3f       	cpi	r25, 0xFF	; 255
    20b4:	19 f4       	brne	.+6      	; 0x20bc <__addsf3+0x24>
    20b6:	26 f4       	brtc	.+8      	; 0x20c0 <__addsf3+0x28>
    20b8:	0c 94 cc 11 	jmp	0x2398	; 0x2398 <__fp_nan>
    20bc:	0e f4       	brtc	.+2      	; 0x20c0 <__addsf3+0x28>
    20be:	e0 95       	com	r30
    20c0:	e7 fb       	bst	r30, 7
    20c2:	0c 94 c6 11 	jmp	0x238c	; 0x238c <__fp_inf>

000020c6 <__addsf3x>:
    20c6:	e9 2f       	mov	r30, r25
    20c8:	0e 94 ee 11 	call	0x23dc	; 0x23dc <__fp_split3>
    20cc:	58 f3       	brcs	.-42     	; 0x20a4 <__addsf3+0xc>
    20ce:	ba 17       	cp	r27, r26
    20d0:	62 07       	cpc	r22, r18
    20d2:	73 07       	cpc	r23, r19
    20d4:	84 07       	cpc	r24, r20
    20d6:	95 07       	cpc	r25, r21
    20d8:	20 f0       	brcs	.+8      	; 0x20e2 <__addsf3x+0x1c>
    20da:	79 f4       	brne	.+30     	; 0x20fa <__addsf3x+0x34>
    20dc:	a6 f5       	brtc	.+104    	; 0x2146 <__addsf3x+0x80>
    20de:	0c 94 10 12 	jmp	0x2420	; 0x2420 <__fp_zero>
    20e2:	0e f4       	brtc	.+2      	; 0x20e6 <__addsf3x+0x20>
    20e4:	e0 95       	com	r30
    20e6:	0b 2e       	mov	r0, r27
    20e8:	ba 2f       	mov	r27, r26
    20ea:	a0 2d       	mov	r26, r0
    20ec:	0b 01       	movw	r0, r22
    20ee:	b9 01       	movw	r22, r18
    20f0:	90 01       	movw	r18, r0
    20f2:	0c 01       	movw	r0, r24
    20f4:	ca 01       	movw	r24, r20
    20f6:	a0 01       	movw	r20, r0
    20f8:	11 24       	eor	r1, r1
    20fa:	ff 27       	eor	r31, r31
    20fc:	59 1b       	sub	r21, r25
    20fe:	99 f0       	breq	.+38     	; 0x2126 <__addsf3x+0x60>
    2100:	59 3f       	cpi	r21, 0xF9	; 249
    2102:	50 f4       	brcc	.+20     	; 0x2118 <__addsf3x+0x52>
    2104:	50 3e       	cpi	r21, 0xE0	; 224
    2106:	68 f1       	brcs	.+90     	; 0x2162 <__addsf3x+0x9c>
    2108:	1a 16       	cp	r1, r26
    210a:	f0 40       	sbci	r31, 0x00	; 0
    210c:	a2 2f       	mov	r26, r18
    210e:	23 2f       	mov	r18, r19
    2110:	34 2f       	mov	r19, r20
    2112:	44 27       	eor	r20, r20
    2114:	58 5f       	subi	r21, 0xF8	; 248
    2116:	f3 cf       	rjmp	.-26     	; 0x20fe <__addsf3x+0x38>
    2118:	46 95       	lsr	r20
    211a:	37 95       	ror	r19
    211c:	27 95       	ror	r18
    211e:	a7 95       	ror	r26
    2120:	f0 40       	sbci	r31, 0x00	; 0
    2122:	53 95       	inc	r21
    2124:	c9 f7       	brne	.-14     	; 0x2118 <__addsf3x+0x52>
    2126:	7e f4       	brtc	.+30     	; 0x2146 <__addsf3x+0x80>
    2128:	1f 16       	cp	r1, r31
    212a:	ba 0b       	sbc	r27, r26
    212c:	62 0b       	sbc	r22, r18
    212e:	73 0b       	sbc	r23, r19
    2130:	84 0b       	sbc	r24, r20
    2132:	ba f0       	brmi	.+46     	; 0x2162 <__addsf3x+0x9c>
    2134:	91 50       	subi	r25, 0x01	; 1
    2136:	a1 f0       	breq	.+40     	; 0x2160 <__addsf3x+0x9a>
    2138:	ff 0f       	add	r31, r31
    213a:	bb 1f       	adc	r27, r27
    213c:	66 1f       	adc	r22, r22
    213e:	77 1f       	adc	r23, r23
    2140:	88 1f       	adc	r24, r24
    2142:	c2 f7       	brpl	.-16     	; 0x2134 <__addsf3x+0x6e>
    2144:	0e c0       	rjmp	.+28     	; 0x2162 <__addsf3x+0x9c>
    2146:	ba 0f       	add	r27, r26
    2148:	62 1f       	adc	r22, r18
    214a:	73 1f       	adc	r23, r19
    214c:	84 1f       	adc	r24, r20
    214e:	48 f4       	brcc	.+18     	; 0x2162 <__addsf3x+0x9c>
    2150:	87 95       	ror	r24
    2152:	77 95       	ror	r23
    2154:	67 95       	ror	r22
    2156:	b7 95       	ror	r27
    2158:	f7 95       	ror	r31
    215a:	9e 3f       	cpi	r25, 0xFE	; 254
    215c:	08 f0       	brcs	.+2      	; 0x2160 <__addsf3x+0x9a>
    215e:	b0 cf       	rjmp	.-160    	; 0x20c0 <__addsf3+0x28>
    2160:	93 95       	inc	r25
    2162:	88 0f       	add	r24, r24
    2164:	08 f0       	brcs	.+2      	; 0x2168 <__addsf3x+0xa2>
    2166:	99 27       	eor	r25, r25
    2168:	ee 0f       	add	r30, r30
    216a:	97 95       	ror	r25
    216c:	87 95       	ror	r24
    216e:	08 95       	ret

00002170 <__cmpsf2>:
    2170:	0e 94 a2 11 	call	0x2344	; 0x2344 <__fp_cmp>
    2174:	08 f4       	brcc	.+2      	; 0x2178 <__cmpsf2+0x8>
    2176:	81 e0       	ldi	r24, 0x01	; 1
    2178:	08 95       	ret

0000217a <__divsf3>:
    217a:	0e 94 d1 10 	call	0x21a2	; 0x21a2 <__divsf3x>
    217e:	0c 94 dd 11 	jmp	0x23ba	; 0x23ba <__fp_round>
    2182:	0e 94 d6 11 	call	0x23ac	; 0x23ac <__fp_pscB>
    2186:	58 f0       	brcs	.+22     	; 0x219e <__divsf3+0x24>
    2188:	0e 94 cf 11 	call	0x239e	; 0x239e <__fp_pscA>
    218c:	40 f0       	brcs	.+16     	; 0x219e <__divsf3+0x24>
    218e:	29 f4       	brne	.+10     	; 0x219a <__divsf3+0x20>
    2190:	5f 3f       	cpi	r21, 0xFF	; 255
    2192:	29 f0       	breq	.+10     	; 0x219e <__divsf3+0x24>
    2194:	0c 94 c6 11 	jmp	0x238c	; 0x238c <__fp_inf>
    2198:	51 11       	cpse	r21, r1
    219a:	0c 94 11 12 	jmp	0x2422	; 0x2422 <__fp_szero>
    219e:	0c 94 cc 11 	jmp	0x2398	; 0x2398 <__fp_nan>

000021a2 <__divsf3x>:
    21a2:	0e 94 ee 11 	call	0x23dc	; 0x23dc <__fp_split3>
    21a6:	68 f3       	brcs	.-38     	; 0x2182 <__divsf3+0x8>

000021a8 <__divsf3_pse>:
    21a8:	99 23       	and	r25, r25
    21aa:	b1 f3       	breq	.-20     	; 0x2198 <__divsf3+0x1e>
    21ac:	55 23       	and	r21, r21
    21ae:	91 f3       	breq	.-28     	; 0x2194 <__divsf3+0x1a>
    21b0:	95 1b       	sub	r25, r21
    21b2:	55 0b       	sbc	r21, r21
    21b4:	bb 27       	eor	r27, r27
    21b6:	aa 27       	eor	r26, r26
    21b8:	62 17       	cp	r22, r18
    21ba:	73 07       	cpc	r23, r19
    21bc:	84 07       	cpc	r24, r20
    21be:	38 f0       	brcs	.+14     	; 0x21ce <__divsf3_pse+0x26>
    21c0:	9f 5f       	subi	r25, 0xFF	; 255
    21c2:	5f 4f       	sbci	r21, 0xFF	; 255
    21c4:	22 0f       	add	r18, r18
    21c6:	33 1f       	adc	r19, r19
    21c8:	44 1f       	adc	r20, r20
    21ca:	aa 1f       	adc	r26, r26
    21cc:	a9 f3       	breq	.-22     	; 0x21b8 <__divsf3_pse+0x10>
    21ce:	35 d0       	rcall	.+106    	; 0x223a <__divsf3_pse+0x92>
    21d0:	0e 2e       	mov	r0, r30
    21d2:	3a f0       	brmi	.+14     	; 0x21e2 <__divsf3_pse+0x3a>
    21d4:	e0 e8       	ldi	r30, 0x80	; 128
    21d6:	32 d0       	rcall	.+100    	; 0x223c <__divsf3_pse+0x94>
    21d8:	91 50       	subi	r25, 0x01	; 1
    21da:	50 40       	sbci	r21, 0x00	; 0
    21dc:	e6 95       	lsr	r30
    21de:	00 1c       	adc	r0, r0
    21e0:	ca f7       	brpl	.-14     	; 0x21d4 <__divsf3_pse+0x2c>
    21e2:	2b d0       	rcall	.+86     	; 0x223a <__divsf3_pse+0x92>
    21e4:	fe 2f       	mov	r31, r30
    21e6:	29 d0       	rcall	.+82     	; 0x223a <__divsf3_pse+0x92>
    21e8:	66 0f       	add	r22, r22
    21ea:	77 1f       	adc	r23, r23
    21ec:	88 1f       	adc	r24, r24
    21ee:	bb 1f       	adc	r27, r27
    21f0:	26 17       	cp	r18, r22
    21f2:	37 07       	cpc	r19, r23
    21f4:	48 07       	cpc	r20, r24
    21f6:	ab 07       	cpc	r26, r27
    21f8:	b0 e8       	ldi	r27, 0x80	; 128
    21fa:	09 f0       	breq	.+2      	; 0x21fe <__divsf3_pse+0x56>
    21fc:	bb 0b       	sbc	r27, r27
    21fe:	80 2d       	mov	r24, r0
    2200:	bf 01       	movw	r22, r30
    2202:	ff 27       	eor	r31, r31
    2204:	93 58       	subi	r25, 0x83	; 131
    2206:	5f 4f       	sbci	r21, 0xFF	; 255
    2208:	3a f0       	brmi	.+14     	; 0x2218 <__divsf3_pse+0x70>
    220a:	9e 3f       	cpi	r25, 0xFE	; 254
    220c:	51 05       	cpc	r21, r1
    220e:	78 f0       	brcs	.+30     	; 0x222e <__divsf3_pse+0x86>
    2210:	0c 94 c6 11 	jmp	0x238c	; 0x238c <__fp_inf>
    2214:	0c 94 11 12 	jmp	0x2422	; 0x2422 <__fp_szero>
    2218:	5f 3f       	cpi	r21, 0xFF	; 255
    221a:	e4 f3       	brlt	.-8      	; 0x2214 <__divsf3_pse+0x6c>
    221c:	98 3e       	cpi	r25, 0xE8	; 232
    221e:	d4 f3       	brlt	.-12     	; 0x2214 <__divsf3_pse+0x6c>
    2220:	86 95       	lsr	r24
    2222:	77 95       	ror	r23
    2224:	67 95       	ror	r22
    2226:	b7 95       	ror	r27
    2228:	f7 95       	ror	r31
    222a:	9f 5f       	subi	r25, 0xFF	; 255
    222c:	c9 f7       	brne	.-14     	; 0x2220 <__divsf3_pse+0x78>
    222e:	88 0f       	add	r24, r24
    2230:	91 1d       	adc	r25, r1
    2232:	96 95       	lsr	r25
    2234:	87 95       	ror	r24
    2236:	97 f9       	bld	r25, 7
    2238:	08 95       	ret
    223a:	e1 e0       	ldi	r30, 0x01	; 1
    223c:	66 0f       	add	r22, r22
    223e:	77 1f       	adc	r23, r23
    2240:	88 1f       	adc	r24, r24
    2242:	bb 1f       	adc	r27, r27
    2244:	62 17       	cp	r22, r18
    2246:	73 07       	cpc	r23, r19
    2248:	84 07       	cpc	r24, r20
    224a:	ba 07       	cpc	r27, r26
    224c:	20 f0       	brcs	.+8      	; 0x2256 <__divsf3_pse+0xae>
    224e:	62 1b       	sub	r22, r18
    2250:	73 0b       	sbc	r23, r19
    2252:	84 0b       	sbc	r24, r20
    2254:	ba 0b       	sbc	r27, r26
    2256:	ee 1f       	adc	r30, r30
    2258:	88 f7       	brcc	.-30     	; 0x223c <__divsf3_pse+0x94>
    225a:	e0 95       	com	r30
    225c:	08 95       	ret

0000225e <__fixsfsi>:
    225e:	0e 94 36 11 	call	0x226c	; 0x226c <__fixunssfsi>
    2262:	68 94       	set
    2264:	b1 11       	cpse	r27, r1
    2266:	0c 94 11 12 	jmp	0x2422	; 0x2422 <__fp_szero>
    226a:	08 95       	ret

0000226c <__fixunssfsi>:
    226c:	0e 94 f6 11 	call	0x23ec	; 0x23ec <__fp_splitA>
    2270:	88 f0       	brcs	.+34     	; 0x2294 <__fixunssfsi+0x28>
    2272:	9f 57       	subi	r25, 0x7F	; 127
    2274:	98 f0       	brcs	.+38     	; 0x229c <__fixunssfsi+0x30>
    2276:	b9 2f       	mov	r27, r25
    2278:	99 27       	eor	r25, r25
    227a:	b7 51       	subi	r27, 0x17	; 23
    227c:	b0 f0       	brcs	.+44     	; 0x22aa <__fixunssfsi+0x3e>
    227e:	e1 f0       	breq	.+56     	; 0x22b8 <__fixunssfsi+0x4c>
    2280:	66 0f       	add	r22, r22
    2282:	77 1f       	adc	r23, r23
    2284:	88 1f       	adc	r24, r24
    2286:	99 1f       	adc	r25, r25
    2288:	1a f0       	brmi	.+6      	; 0x2290 <__fixunssfsi+0x24>
    228a:	ba 95       	dec	r27
    228c:	c9 f7       	brne	.-14     	; 0x2280 <__fixunssfsi+0x14>
    228e:	14 c0       	rjmp	.+40     	; 0x22b8 <__fixunssfsi+0x4c>
    2290:	b1 30       	cpi	r27, 0x01	; 1
    2292:	91 f0       	breq	.+36     	; 0x22b8 <__fixunssfsi+0x4c>
    2294:	0e 94 10 12 	call	0x2420	; 0x2420 <__fp_zero>
    2298:	b1 e0       	ldi	r27, 0x01	; 1
    229a:	08 95       	ret
    229c:	0c 94 10 12 	jmp	0x2420	; 0x2420 <__fp_zero>
    22a0:	67 2f       	mov	r22, r23
    22a2:	78 2f       	mov	r23, r24
    22a4:	88 27       	eor	r24, r24
    22a6:	b8 5f       	subi	r27, 0xF8	; 248
    22a8:	39 f0       	breq	.+14     	; 0x22b8 <__fixunssfsi+0x4c>
    22aa:	b9 3f       	cpi	r27, 0xF9	; 249
    22ac:	cc f3       	brlt	.-14     	; 0x22a0 <__fixunssfsi+0x34>
    22ae:	86 95       	lsr	r24
    22b0:	77 95       	ror	r23
    22b2:	67 95       	ror	r22
    22b4:	b3 95       	inc	r27
    22b6:	d9 f7       	brne	.-10     	; 0x22ae <__fixunssfsi+0x42>
    22b8:	3e f4       	brtc	.+14     	; 0x22c8 <__fixunssfsi+0x5c>
    22ba:	90 95       	com	r25
    22bc:	80 95       	com	r24
    22be:	70 95       	com	r23
    22c0:	61 95       	neg	r22
    22c2:	7f 4f       	sbci	r23, 0xFF	; 255
    22c4:	8f 4f       	sbci	r24, 0xFF	; 255
    22c6:	9f 4f       	sbci	r25, 0xFF	; 255
    22c8:	08 95       	ret

000022ca <__floatunsisf>:
    22ca:	e8 94       	clt
    22cc:	09 c0       	rjmp	.+18     	; 0x22e0 <__floatsisf+0x12>

000022ce <__floatsisf>:
    22ce:	97 fb       	bst	r25, 7
    22d0:	3e f4       	brtc	.+14     	; 0x22e0 <__floatsisf+0x12>
    22d2:	90 95       	com	r25
    22d4:	80 95       	com	r24
    22d6:	70 95       	com	r23
    22d8:	61 95       	neg	r22
    22da:	7f 4f       	sbci	r23, 0xFF	; 255
    22dc:	8f 4f       	sbci	r24, 0xFF	; 255
    22de:	9f 4f       	sbci	r25, 0xFF	; 255
    22e0:	99 23       	and	r25, r25
    22e2:	a9 f0       	breq	.+42     	; 0x230e <__floatsisf+0x40>
    22e4:	f9 2f       	mov	r31, r25
    22e6:	96 e9       	ldi	r25, 0x96	; 150
    22e8:	bb 27       	eor	r27, r27
    22ea:	93 95       	inc	r25
    22ec:	f6 95       	lsr	r31
    22ee:	87 95       	ror	r24
    22f0:	77 95       	ror	r23
    22f2:	67 95       	ror	r22
    22f4:	b7 95       	ror	r27
    22f6:	f1 11       	cpse	r31, r1
    22f8:	f8 cf       	rjmp	.-16     	; 0x22ea <__floatsisf+0x1c>
    22fa:	fa f4       	brpl	.+62     	; 0x233a <__floatsisf+0x6c>
    22fc:	bb 0f       	add	r27, r27
    22fe:	11 f4       	brne	.+4      	; 0x2304 <__floatsisf+0x36>
    2300:	60 ff       	sbrs	r22, 0
    2302:	1b c0       	rjmp	.+54     	; 0x233a <__floatsisf+0x6c>
    2304:	6f 5f       	subi	r22, 0xFF	; 255
    2306:	7f 4f       	sbci	r23, 0xFF	; 255
    2308:	8f 4f       	sbci	r24, 0xFF	; 255
    230a:	9f 4f       	sbci	r25, 0xFF	; 255
    230c:	16 c0       	rjmp	.+44     	; 0x233a <__floatsisf+0x6c>
    230e:	88 23       	and	r24, r24
    2310:	11 f0       	breq	.+4      	; 0x2316 <__floatsisf+0x48>
    2312:	96 e9       	ldi	r25, 0x96	; 150
    2314:	11 c0       	rjmp	.+34     	; 0x2338 <__floatsisf+0x6a>
    2316:	77 23       	and	r23, r23
    2318:	21 f0       	breq	.+8      	; 0x2322 <__floatsisf+0x54>
    231a:	9e e8       	ldi	r25, 0x8E	; 142
    231c:	87 2f       	mov	r24, r23
    231e:	76 2f       	mov	r23, r22
    2320:	05 c0       	rjmp	.+10     	; 0x232c <__floatsisf+0x5e>
    2322:	66 23       	and	r22, r22
    2324:	71 f0       	breq	.+28     	; 0x2342 <__floatsisf+0x74>
    2326:	96 e8       	ldi	r25, 0x86	; 134
    2328:	86 2f       	mov	r24, r22
    232a:	70 e0       	ldi	r23, 0x00	; 0
    232c:	60 e0       	ldi	r22, 0x00	; 0
    232e:	2a f0       	brmi	.+10     	; 0x233a <__floatsisf+0x6c>
    2330:	9a 95       	dec	r25
    2332:	66 0f       	add	r22, r22
    2334:	77 1f       	adc	r23, r23
    2336:	88 1f       	adc	r24, r24
    2338:	da f7       	brpl	.-10     	; 0x2330 <__floatsisf+0x62>
    233a:	88 0f       	add	r24, r24
    233c:	96 95       	lsr	r25
    233e:	87 95       	ror	r24
    2340:	97 f9       	bld	r25, 7
    2342:	08 95       	ret

00002344 <__fp_cmp>:
    2344:	99 0f       	add	r25, r25
    2346:	00 08       	sbc	r0, r0
    2348:	55 0f       	add	r21, r21
    234a:	aa 0b       	sbc	r26, r26
    234c:	e0 e8       	ldi	r30, 0x80	; 128
    234e:	fe ef       	ldi	r31, 0xFE	; 254
    2350:	16 16       	cp	r1, r22
    2352:	17 06       	cpc	r1, r23
    2354:	e8 07       	cpc	r30, r24
    2356:	f9 07       	cpc	r31, r25
    2358:	c0 f0       	brcs	.+48     	; 0x238a <__fp_cmp+0x46>
    235a:	12 16       	cp	r1, r18
    235c:	13 06       	cpc	r1, r19
    235e:	e4 07       	cpc	r30, r20
    2360:	f5 07       	cpc	r31, r21
    2362:	98 f0       	brcs	.+38     	; 0x238a <__fp_cmp+0x46>
    2364:	62 1b       	sub	r22, r18
    2366:	73 0b       	sbc	r23, r19
    2368:	84 0b       	sbc	r24, r20
    236a:	95 0b       	sbc	r25, r21
    236c:	39 f4       	brne	.+14     	; 0x237c <__fp_cmp+0x38>
    236e:	0a 26       	eor	r0, r26
    2370:	61 f0       	breq	.+24     	; 0x238a <__fp_cmp+0x46>
    2372:	23 2b       	or	r18, r19
    2374:	24 2b       	or	r18, r20
    2376:	25 2b       	or	r18, r21
    2378:	21 f4       	brne	.+8      	; 0x2382 <__fp_cmp+0x3e>
    237a:	08 95       	ret
    237c:	0a 26       	eor	r0, r26
    237e:	09 f4       	brne	.+2      	; 0x2382 <__fp_cmp+0x3e>
    2380:	a1 40       	sbci	r26, 0x01	; 1
    2382:	a6 95       	lsr	r26
    2384:	8f ef       	ldi	r24, 0xFF	; 255
    2386:	81 1d       	adc	r24, r1
    2388:	81 1d       	adc	r24, r1
    238a:	08 95       	ret

0000238c <__fp_inf>:
    238c:	97 f9       	bld	r25, 7
    238e:	9f 67       	ori	r25, 0x7F	; 127
    2390:	80 e8       	ldi	r24, 0x80	; 128
    2392:	70 e0       	ldi	r23, 0x00	; 0
    2394:	60 e0       	ldi	r22, 0x00	; 0
    2396:	08 95       	ret

00002398 <__fp_nan>:
    2398:	9f ef       	ldi	r25, 0xFF	; 255
    239a:	80 ec       	ldi	r24, 0xC0	; 192
    239c:	08 95       	ret

0000239e <__fp_pscA>:
    239e:	00 24       	eor	r0, r0
    23a0:	0a 94       	dec	r0
    23a2:	16 16       	cp	r1, r22
    23a4:	17 06       	cpc	r1, r23
    23a6:	18 06       	cpc	r1, r24
    23a8:	09 06       	cpc	r0, r25
    23aa:	08 95       	ret

000023ac <__fp_pscB>:
    23ac:	00 24       	eor	r0, r0
    23ae:	0a 94       	dec	r0
    23b0:	12 16       	cp	r1, r18
    23b2:	13 06       	cpc	r1, r19
    23b4:	14 06       	cpc	r1, r20
    23b6:	05 06       	cpc	r0, r21
    23b8:	08 95       	ret

000023ba <__fp_round>:
    23ba:	09 2e       	mov	r0, r25
    23bc:	03 94       	inc	r0
    23be:	00 0c       	add	r0, r0
    23c0:	11 f4       	brne	.+4      	; 0x23c6 <__fp_round+0xc>
    23c2:	88 23       	and	r24, r24
    23c4:	52 f0       	brmi	.+20     	; 0x23da <__fp_round+0x20>
    23c6:	bb 0f       	add	r27, r27
    23c8:	40 f4       	brcc	.+16     	; 0x23da <__fp_round+0x20>
    23ca:	bf 2b       	or	r27, r31
    23cc:	11 f4       	brne	.+4      	; 0x23d2 <__fp_round+0x18>
    23ce:	60 ff       	sbrs	r22, 0
    23d0:	04 c0       	rjmp	.+8      	; 0x23da <__fp_round+0x20>
    23d2:	6f 5f       	subi	r22, 0xFF	; 255
    23d4:	7f 4f       	sbci	r23, 0xFF	; 255
    23d6:	8f 4f       	sbci	r24, 0xFF	; 255
    23d8:	9f 4f       	sbci	r25, 0xFF	; 255
    23da:	08 95       	ret

000023dc <__fp_split3>:
    23dc:	57 fd       	sbrc	r21, 7
    23de:	90 58       	subi	r25, 0x80	; 128
    23e0:	44 0f       	add	r20, r20
    23e2:	55 1f       	adc	r21, r21
    23e4:	59 f0       	breq	.+22     	; 0x23fc <__fp_splitA+0x10>
    23e6:	5f 3f       	cpi	r21, 0xFF	; 255
    23e8:	71 f0       	breq	.+28     	; 0x2406 <__fp_splitA+0x1a>
    23ea:	47 95       	ror	r20

000023ec <__fp_splitA>:
    23ec:	88 0f       	add	r24, r24
    23ee:	97 fb       	bst	r25, 7
    23f0:	99 1f       	adc	r25, r25
    23f2:	61 f0       	breq	.+24     	; 0x240c <__fp_splitA+0x20>
    23f4:	9f 3f       	cpi	r25, 0xFF	; 255
    23f6:	79 f0       	breq	.+30     	; 0x2416 <__fp_splitA+0x2a>
    23f8:	87 95       	ror	r24
    23fa:	08 95       	ret
    23fc:	12 16       	cp	r1, r18
    23fe:	13 06       	cpc	r1, r19
    2400:	14 06       	cpc	r1, r20
    2402:	55 1f       	adc	r21, r21
    2404:	f2 cf       	rjmp	.-28     	; 0x23ea <__fp_split3+0xe>
    2406:	46 95       	lsr	r20
    2408:	f1 df       	rcall	.-30     	; 0x23ec <__fp_splitA>
    240a:	08 c0       	rjmp	.+16     	; 0x241c <__fp_splitA+0x30>
    240c:	16 16       	cp	r1, r22
    240e:	17 06       	cpc	r1, r23
    2410:	18 06       	cpc	r1, r24
    2412:	99 1f       	adc	r25, r25
    2414:	f1 cf       	rjmp	.-30     	; 0x23f8 <__fp_splitA+0xc>
    2416:	86 95       	lsr	r24
    2418:	71 05       	cpc	r23, r1
    241a:	61 05       	cpc	r22, r1
    241c:	08 94       	sec
    241e:	08 95       	ret

00002420 <__fp_zero>:
    2420:	e8 94       	clt

00002422 <__fp_szero>:
    2422:	bb 27       	eor	r27, r27
    2424:	66 27       	eor	r22, r22
    2426:	77 27       	eor	r23, r23
    2428:	cb 01       	movw	r24, r22
    242a:	97 f9       	bld	r25, 7
    242c:	08 95       	ret

0000242e <__gesf2>:
    242e:	0e 94 a2 11 	call	0x2344	; 0x2344 <__fp_cmp>
    2432:	08 f4       	brcc	.+2      	; 0x2436 <__gesf2+0x8>
    2434:	8f ef       	ldi	r24, 0xFF	; 255
    2436:	08 95       	ret

00002438 <__mulsf3>:
    2438:	0e 94 2f 12 	call	0x245e	; 0x245e <__mulsf3x>
    243c:	0c 94 dd 11 	jmp	0x23ba	; 0x23ba <__fp_round>
    2440:	0e 94 cf 11 	call	0x239e	; 0x239e <__fp_pscA>
    2444:	38 f0       	brcs	.+14     	; 0x2454 <__mulsf3+0x1c>
    2446:	0e 94 d6 11 	call	0x23ac	; 0x23ac <__fp_pscB>
    244a:	20 f0       	brcs	.+8      	; 0x2454 <__mulsf3+0x1c>
    244c:	95 23       	and	r25, r21
    244e:	11 f0       	breq	.+4      	; 0x2454 <__mulsf3+0x1c>
    2450:	0c 94 c6 11 	jmp	0x238c	; 0x238c <__fp_inf>
    2454:	0c 94 cc 11 	jmp	0x2398	; 0x2398 <__fp_nan>
    2458:	11 24       	eor	r1, r1
    245a:	0c 94 11 12 	jmp	0x2422	; 0x2422 <__fp_szero>

0000245e <__mulsf3x>:
    245e:	0e 94 ee 11 	call	0x23dc	; 0x23dc <__fp_split3>
    2462:	70 f3       	brcs	.-36     	; 0x2440 <__mulsf3+0x8>

00002464 <__mulsf3_pse>:
    2464:	95 9f       	mul	r25, r21
    2466:	c1 f3       	breq	.-16     	; 0x2458 <__mulsf3+0x20>
    2468:	95 0f       	add	r25, r21
    246a:	50 e0       	ldi	r21, 0x00	; 0
    246c:	55 1f       	adc	r21, r21
    246e:	62 9f       	mul	r22, r18
    2470:	f0 01       	movw	r30, r0
    2472:	72 9f       	mul	r23, r18
    2474:	bb 27       	eor	r27, r27
    2476:	f0 0d       	add	r31, r0
    2478:	b1 1d       	adc	r27, r1
    247a:	63 9f       	mul	r22, r19
    247c:	aa 27       	eor	r26, r26
    247e:	f0 0d       	add	r31, r0
    2480:	b1 1d       	adc	r27, r1
    2482:	aa 1f       	adc	r26, r26
    2484:	64 9f       	mul	r22, r20
    2486:	66 27       	eor	r22, r22
    2488:	b0 0d       	add	r27, r0
    248a:	a1 1d       	adc	r26, r1
    248c:	66 1f       	adc	r22, r22
    248e:	82 9f       	mul	r24, r18
    2490:	22 27       	eor	r18, r18
    2492:	b0 0d       	add	r27, r0
    2494:	a1 1d       	adc	r26, r1
    2496:	62 1f       	adc	r22, r18
    2498:	73 9f       	mul	r23, r19
    249a:	b0 0d       	add	r27, r0
    249c:	a1 1d       	adc	r26, r1
    249e:	62 1f       	adc	r22, r18
    24a0:	83 9f       	mul	r24, r19
    24a2:	a0 0d       	add	r26, r0
    24a4:	61 1d       	adc	r22, r1
    24a6:	22 1f       	adc	r18, r18
    24a8:	74 9f       	mul	r23, r20
    24aa:	33 27       	eor	r19, r19
    24ac:	a0 0d       	add	r26, r0
    24ae:	61 1d       	adc	r22, r1
    24b0:	23 1f       	adc	r18, r19
    24b2:	84 9f       	mul	r24, r20
    24b4:	60 0d       	add	r22, r0
    24b6:	21 1d       	adc	r18, r1
    24b8:	82 2f       	mov	r24, r18
    24ba:	76 2f       	mov	r23, r22
    24bc:	6a 2f       	mov	r22, r26
    24be:	11 24       	eor	r1, r1
    24c0:	9f 57       	subi	r25, 0x7F	; 127
    24c2:	50 40       	sbci	r21, 0x00	; 0
    24c4:	9a f0       	brmi	.+38     	; 0x24ec <__mulsf3_pse+0x88>
    24c6:	f1 f0       	breq	.+60     	; 0x2504 <__mulsf3_pse+0xa0>
    24c8:	88 23       	and	r24, r24
    24ca:	4a f0       	brmi	.+18     	; 0x24de <__mulsf3_pse+0x7a>
    24cc:	ee 0f       	add	r30, r30
    24ce:	ff 1f       	adc	r31, r31
    24d0:	bb 1f       	adc	r27, r27
    24d2:	66 1f       	adc	r22, r22
    24d4:	77 1f       	adc	r23, r23
    24d6:	88 1f       	adc	r24, r24
    24d8:	91 50       	subi	r25, 0x01	; 1
    24da:	50 40       	sbci	r21, 0x00	; 0
    24dc:	a9 f7       	brne	.-22     	; 0x24c8 <__mulsf3_pse+0x64>
    24de:	9e 3f       	cpi	r25, 0xFE	; 254
    24e0:	51 05       	cpc	r21, r1
    24e2:	80 f0       	brcs	.+32     	; 0x2504 <__mulsf3_pse+0xa0>
    24e4:	0c 94 c6 11 	jmp	0x238c	; 0x238c <__fp_inf>
    24e8:	0c 94 11 12 	jmp	0x2422	; 0x2422 <__fp_szero>
    24ec:	5f 3f       	cpi	r21, 0xFF	; 255
    24ee:	e4 f3       	brlt	.-8      	; 0x24e8 <__mulsf3_pse+0x84>
    24f0:	98 3e       	cpi	r25, 0xE8	; 232
    24f2:	d4 f3       	brlt	.-12     	; 0x24e8 <__mulsf3_pse+0x84>
    24f4:	86 95       	lsr	r24
    24f6:	77 95       	ror	r23
    24f8:	67 95       	ror	r22
    24fa:	b7 95       	ror	r27
    24fc:	f7 95       	ror	r31
    24fe:	e7 95       	ror	r30
    2500:	9f 5f       	subi	r25, 0xFF	; 255
    2502:	c1 f7       	brne	.-16     	; 0x24f4 <__mulsf3_pse+0x90>
    2504:	fe 2b       	or	r31, r30
    2506:	88 0f       	add	r24, r24
    2508:	91 1d       	adc	r25, r1
    250a:	96 95       	lsr	r25
    250c:	87 95       	ror	r24
    250e:	97 f9       	bld	r25, 7
    2510:	08 95       	ret

00002512 <__udivmodqi4>:
    2512:	99 1b       	sub	r25, r25
    2514:	79 e0       	ldi	r23, 0x09	; 9
    2516:	04 c0       	rjmp	.+8      	; 0x2520 <__udivmodqi4_ep>

00002518 <__udivmodqi4_loop>:
    2518:	99 1f       	adc	r25, r25
    251a:	96 17       	cp	r25, r22
    251c:	08 f0       	brcs	.+2      	; 0x2520 <__udivmodqi4_ep>
    251e:	96 1b       	sub	r25, r22

00002520 <__udivmodqi4_ep>:
    2520:	88 1f       	adc	r24, r24
    2522:	7a 95       	dec	r23
    2524:	c9 f7       	brne	.-14     	; 0x2518 <__udivmodqi4_loop>
    2526:	80 95       	com	r24
    2528:	08 95       	ret

0000252a <__udivmodhi4>:
    252a:	aa 1b       	sub	r26, r26
    252c:	bb 1b       	sub	r27, r27
    252e:	51 e1       	ldi	r21, 0x11	; 17
    2530:	07 c0       	rjmp	.+14     	; 0x2540 <__udivmodhi4_ep>

00002532 <__udivmodhi4_loop>:
    2532:	aa 1f       	adc	r26, r26
    2534:	bb 1f       	adc	r27, r27
    2536:	a6 17       	cp	r26, r22
    2538:	b7 07       	cpc	r27, r23
    253a:	10 f0       	brcs	.+4      	; 0x2540 <__udivmodhi4_ep>
    253c:	a6 1b       	sub	r26, r22
    253e:	b7 0b       	sbc	r27, r23

00002540 <__udivmodhi4_ep>:
    2540:	88 1f       	adc	r24, r24
    2542:	99 1f       	adc	r25, r25
    2544:	5a 95       	dec	r21
    2546:	a9 f7       	brne	.-22     	; 0x2532 <__udivmodhi4_loop>
    2548:	80 95       	com	r24
    254a:	90 95       	com	r25
    254c:	bc 01       	movw	r22, r24
    254e:	cd 01       	movw	r24, r26
    2550:	08 95       	ret

00002552 <__divmodhi4>:
    2552:	97 fb       	bst	r25, 7
    2554:	07 2e       	mov	r0, r23
    2556:	16 f4       	brtc	.+4      	; 0x255c <__divmodhi4+0xa>
    2558:	00 94       	com	r0
    255a:	07 d0       	rcall	.+14     	; 0x256a <__divmodhi4_neg1>
    255c:	77 fd       	sbrc	r23, 7
    255e:	09 d0       	rcall	.+18     	; 0x2572 <__divmodhi4_neg2>
    2560:	0e 94 95 12 	call	0x252a	; 0x252a <__udivmodhi4>
    2564:	07 fc       	sbrc	r0, 7
    2566:	05 d0       	rcall	.+10     	; 0x2572 <__divmodhi4_neg2>
    2568:	3e f4       	brtc	.+14     	; 0x2578 <__divmodhi4_exit>

0000256a <__divmodhi4_neg1>:
    256a:	90 95       	com	r25
    256c:	81 95       	neg	r24
    256e:	9f 4f       	sbci	r25, 0xFF	; 255
    2570:	08 95       	ret

00002572 <__divmodhi4_neg2>:
    2572:	70 95       	com	r23
    2574:	61 95       	neg	r22
    2576:	7f 4f       	sbci	r23, 0xFF	; 255

00002578 <__divmodhi4_exit>:
    2578:	08 95       	ret

0000257a <__udivmodsi4>:
    257a:	a1 e2       	ldi	r26, 0x21	; 33
    257c:	1a 2e       	mov	r1, r26
    257e:	aa 1b       	sub	r26, r26
    2580:	bb 1b       	sub	r27, r27
    2582:	fd 01       	movw	r30, r26
    2584:	0d c0       	rjmp	.+26     	; 0x25a0 <__udivmodsi4_ep>

00002586 <__udivmodsi4_loop>:
    2586:	aa 1f       	adc	r26, r26
    2588:	bb 1f       	adc	r27, r27
    258a:	ee 1f       	adc	r30, r30
    258c:	ff 1f       	adc	r31, r31
    258e:	a2 17       	cp	r26, r18
    2590:	b3 07       	cpc	r27, r19
    2592:	e4 07       	cpc	r30, r20
    2594:	f5 07       	cpc	r31, r21
    2596:	20 f0       	brcs	.+8      	; 0x25a0 <__udivmodsi4_ep>
    2598:	a2 1b       	sub	r26, r18
    259a:	b3 0b       	sbc	r27, r19
    259c:	e4 0b       	sbc	r30, r20
    259e:	f5 0b       	sbc	r31, r21

000025a0 <__udivmodsi4_ep>:
    25a0:	66 1f       	adc	r22, r22
    25a2:	77 1f       	adc	r23, r23
    25a4:	88 1f       	adc	r24, r24
    25a6:	99 1f       	adc	r25, r25
    25a8:	1a 94       	dec	r1
    25aa:	69 f7       	brne	.-38     	; 0x2586 <__udivmodsi4_loop>
    25ac:	60 95       	com	r22
    25ae:	70 95       	com	r23
    25b0:	80 95       	com	r24
    25b2:	90 95       	com	r25
    25b4:	9b 01       	movw	r18, r22
    25b6:	ac 01       	movw	r20, r24
    25b8:	bd 01       	movw	r22, r26
    25ba:	cf 01       	movw	r24, r30
    25bc:	08 95       	ret

000025be <__divmodsi4>:
    25be:	05 2e       	mov	r0, r21
    25c0:	97 fb       	bst	r25, 7
    25c2:	1e f4       	brtc	.+6      	; 0x25ca <__divmodsi4+0xc>
    25c4:	00 94       	com	r0
    25c6:	0e 94 f6 12 	call	0x25ec	; 0x25ec <__negsi2>
    25ca:	57 fd       	sbrc	r21, 7
    25cc:	07 d0       	rcall	.+14     	; 0x25dc <__divmodsi4_neg2>
    25ce:	0e 94 bd 12 	call	0x257a	; 0x257a <__udivmodsi4>
    25d2:	07 fc       	sbrc	r0, 7
    25d4:	03 d0       	rcall	.+6      	; 0x25dc <__divmodsi4_neg2>
    25d6:	4e f4       	brtc	.+18     	; 0x25ea <__divmodsi4_exit>
    25d8:	0c 94 f6 12 	jmp	0x25ec	; 0x25ec <__negsi2>

000025dc <__divmodsi4_neg2>:
    25dc:	50 95       	com	r21
    25de:	40 95       	com	r20
    25e0:	30 95       	com	r19
    25e2:	21 95       	neg	r18
    25e4:	3f 4f       	sbci	r19, 0xFF	; 255
    25e6:	4f 4f       	sbci	r20, 0xFF	; 255
    25e8:	5f 4f       	sbci	r21, 0xFF	; 255

000025ea <__divmodsi4_exit>:
    25ea:	08 95       	ret

000025ec <__negsi2>:
    25ec:	90 95       	com	r25
    25ee:	80 95       	com	r24
    25f0:	70 95       	com	r23
    25f2:	61 95       	neg	r22
    25f4:	7f 4f       	sbci	r23, 0xFF	; 255
    25f6:	8f 4f       	sbci	r24, 0xFF	; 255
    25f8:	9f 4f       	sbci	r25, 0xFF	; 255
    25fa:	08 95       	ret

000025fc <__tablejump2__>:
    25fc:	ee 0f       	add	r30, r30
    25fe:	ff 1f       	adc	r31, r31
    2600:	05 90       	lpm	r0, Z+
    2602:	f4 91       	lpm	r31, Z
    2604:	e0 2d       	mov	r30, r0
    2606:	09 94       	ijmp

00002608 <__umulhisi3>:
    2608:	a2 9f       	mul	r26, r18
    260a:	b0 01       	movw	r22, r0
    260c:	b3 9f       	mul	r27, r19
    260e:	c0 01       	movw	r24, r0
    2610:	a3 9f       	mul	r26, r19
    2612:	70 0d       	add	r23, r0
    2614:	81 1d       	adc	r24, r1
    2616:	11 24       	eor	r1, r1
    2618:	91 1d       	adc	r25, r1
    261a:	b2 9f       	mul	r27, r18
    261c:	70 0d       	add	r23, r0
    261e:	81 1d       	adc	r24, r1
    2620:	11 24       	eor	r1, r1
    2622:	91 1d       	adc	r25, r1
    2624:	08 95       	ret

00002626 <_exit>:
    2626:	f8 94       	cli

00002628 <__stop_program>:
    2628:	ff cf       	rjmp	.-2      	; 0x2628 <__stop_program>
